ARM GAS  C:\Users\HUAWEI\AppData\Local\Temp\ccMknBIa.s 			page 1


   1              		.cpu cortex-m4
   2              		.arch armv7e-m
   3              		.fpu fpv4-sp-d16
   4              		.eabi_attribute 27, 1
   5              		.eabi_attribute 28, 1
   6              		.eabi_attribute 20, 1
   7              		.eabi_attribute 21, 1
   8              		.eabi_attribute 23, 3
   9              		.eabi_attribute 24, 1
  10              		.eabi_attribute 25, 1
  11              		.eabi_attribute 26, 1
  12              		.eabi_attribute 30, 1
  13              		.eabi_attribute 34, 1
  14              		.eabi_attribute 18, 4
  15              		.file	"bsp_usart.c"
  16              		.text
  17              	.Ltext0:
  18              		.cfi_sections	.debug_frame
  19              		.section	.text.USARTServiceInit,"ax",%progbits
  20              		.align	1
  21              		.global	USARTServiceInit
  22              		.syntax unified
  23              		.thumb
  24              		.thumb_func
  26              	USARTServiceInit:
  27              	.LVL0:
  28              	.LFB134:
  29              		.file 1 "bsp/usart/bsp_usart.c"
   1:bsp/usart/bsp_usart.c **** /**
   2:bsp/usart/bsp_usart.c ****  * @file bsp_usart.c
   3:bsp/usart/bsp_usart.c ****  * @author neozng
   4:bsp/usart/bsp_usart.c ****  * @brief  ä¸²å£bspå±‚çš„å®ç°
   5:bsp/usart/bsp_usart.c ****  * @version beta
   6:bsp/usart/bsp_usart.c ****  * @date 2022-11-01
   7:bsp/usart/bsp_usart.c ****  *
   8:bsp/usart/bsp_usart.c ****  * @copyright Copyright (c) 2022
   9:bsp/usart/bsp_usart.c ****  *
  10:bsp/usart/bsp_usart.c ****  */
  11:bsp/usart/bsp_usart.c **** #include "bsp_usart.h"
  12:bsp/usart/bsp_usart.c **** #include "stdlib.h"
  13:bsp/usart/bsp_usart.c **** 
  14:bsp/usart/bsp_usart.c **** /* usart service instance, modules' info would be recoreded here using USARTRegister() */
  15:bsp/usart/bsp_usart.c **** /* usartæœåŠ¡å®ä¾‹,æ‰€æœ‰æ³¨å†Œäº†usartçš„æ¨¡å—ä¿¡æ¯ä¼šè¢«ä¿å­˜åœ¨è¿™é‡Œ */
  16:bsp/usart/bsp_usart.c **** static uint8_t idx;
  17:bsp/usart/bsp_usart.c **** static USARTInstance *usart_instance[DEVICE_USART_CNT] = {NULL};
  18:bsp/usart/bsp_usart.c **** 
  19:bsp/usart/bsp_usart.c **** /**
  20:bsp/usart/bsp_usart.c ****  * @brief å¯åŠ¨ä¸²å£æœåŠ¡,ä¼šåœ¨æ¯ä¸ªå®ä¾‹æ³¨å†Œä¹‹åè‡ªåŠ¨å¯ç”¨æ¥æ”¶,å½“å‰å®ç°ä¸ºDMAæ¥
  21:bsp/usart/bsp_usart.c ****  *
  22:bsp/usart/bsp_usart.c ****  * @todo ä¸²å£æœåŠ¡ä¼šåœ¨æ¯ä¸ªå®ä¾‹æ³¨å†Œä¹‹åè‡ªåŠ¨å¯ç”¨æ¥æ”¶,å½“å‰å®ç°ä¸ºDMAæ¥æ”¶,åç
  23:bsp/usart/bsp_usart.c ****  *       å¯èƒ½è¿˜è¦å°†æ­¤å‡½æ•°ä¿®æ”¹ä¸ºextern,ä½¿å¾—moduleå¯ä»¥æ§åˆ¶ä¸²å£çš„å¯åœ
  24:bsp/usart/bsp_usart.c ****  *
  25:bsp/usart/bsp_usart.c ****  * @param _instance instance owned by module,æ¨¡å—æ‹¥æœ‰çš„ä¸²å£å®ä¾‹
  26:bsp/usart/bsp_usart.c ****  */
  27:bsp/usart/bsp_usart.c **** void USARTServiceInit(USARTInstance *_instance)
  28:bsp/usart/bsp_usart.c **** {
  30              		.loc 1 28 1 view -0
ARM GAS  C:\Users\HUAWEI\AppData\Local\Temp\ccMknBIa.s 			page 2


  31              		.cfi_startproc
  32              		@ args = 0, pretend = 0, frame = 0
  33              		@ frame_needed = 0, uses_anonymous_args = 0
  34              		.loc 1 28 1 is_stmt 0 view .LVU1
  35 0000 10B5     		push	{r4, lr}
  36              	.LCFI0:
  37              		.cfi_def_cfa_offset 8
  38              		.cfi_offset 4, -8
  39              		.cfi_offset 14, -4
  40 0002 0446     		mov	r4, r0
  29:bsp/usart/bsp_usart.c ****     HAL_UART_Receive_IT(_instance->usart_handle, _instance->recv_buff, _instance->recv_buff_size);
  41              		.loc 1 29 5 is_stmt 1 view .LVU2
  42 0004 90F80021 		ldrb	r2, [r0, #256]	@ zero_extendqisi2
  43 0008 0146     		mov	r1, r0
  44 000a D0F80401 		ldr	r0, [r0, #260]
  45              	.LVL1:
  46              		.loc 1 29 5 is_stmt 0 view .LVU3
  47 000e FFF7FEFF 		bl	HAL_UART_Receive_IT
  48              	.LVL2:
  30:bsp/usart/bsp_usart.c ****     // HAL_UARTEx_ReceiveToIdle_DMA(_instance->usart_handle, _instance->recv_buff, _instance->recv_
  31:bsp/usart/bsp_usart.c ****     // å…³é—­dma half transferä¸­æ–­é˜²æ­¢ä¸¤æ¬¡è¿›å…¥HAL_UARTEx_RxEventCallback()
  32:bsp/usart/bsp_usart.c ****     // è¿™æ˜¯HALåº“çš„ä¸€ä¸ªè®¾è®¡å¤±è¯¯,å‘ç”ŸDMAä¼ è¾“å®Œæˆ/åŠå®Œæˆä»¥åŠä¸²å£IDLEä¸­æ–­éƒ½ä¼
  33:bsp/usart/bsp_usart.c ****     // æˆ‘ä»¬åªå¸Œæœ›å¤„ç†ç¬¬ä¸€ç§å’Œç¬¬ä¸‰ç§æƒ…å†µ,å› æ­¤ç›´æ¥å…³é—­DMAåŠä¼ è¾“ä¸­æ–­
  34:bsp/usart/bsp_usart.c ****     __HAL_DMA_DISABLE_IT(_instance->usart_handle->hdmarx, DMA_IT_HT);
  49              		.loc 1 34 5 is_stmt 1 view .LVU4
  50 0012 D4F80431 		ldr	r3, [r4, #260]
  51 0016 DB6B     		ldr	r3, [r3, #60]
  52 0018 1A68     		ldr	r2, [r3]
  53 001a 1368     		ldr	r3, [r2]
  54 001c 23F00803 		bic	r3, r3, #8
  55 0020 1360     		str	r3, [r2]
  35:bsp/usart/bsp_usart.c **** }
  56              		.loc 1 35 1 is_stmt 0 view .LVU5
  57 0022 10BD     		pop	{r4, pc}
  58              		.loc 1 35 1 view .LVU6
  59              		.cfi_endproc
  60              	.LFE134:
  62              		.section	.text.USARTRegister,"ax",%progbits
  63              		.align	1
  64              		.global	USARTRegister
  65              		.syntax unified
  66              		.thumb
  67              		.thumb_func
  69              	USARTRegister:
  70              	.LVL3:
  71              	.LFB135:
  36:bsp/usart/bsp_usart.c **** 
  37:bsp/usart/bsp_usart.c **** USARTInstance *USARTRegister(USART_Init_Config_s *init_config)
  38:bsp/usart/bsp_usart.c **** {
  72              		.loc 1 38 1 is_stmt 1 view -0
  73              		.cfi_startproc
  74              		@ args = 0, pretend = 0, frame = 0
  75              		@ frame_needed = 0, uses_anonymous_args = 0
  76              		.loc 1 38 1 is_stmt 0 view .LVU8
  77 0000 38B5     		push	{r3, r4, r5, lr}
  78              	.LCFI1:
  79              		.cfi_def_cfa_offset 16
ARM GAS  C:\Users\HUAWEI\AppData\Local\Temp\ccMknBIa.s 			page 3


  80              		.cfi_offset 3, -16
  81              		.cfi_offset 4, -12
  82              		.cfi_offset 5, -8
  83              		.cfi_offset 14, -4
  84 0002 0546     		mov	r5, r0
  39:bsp/usart/bsp_usart.c ****     // if (idx >= DEVICE_USART_CNT) // è¶…è¿‡æœ€å¤§å®ä¾‹æ•°
  40:bsp/usart/bsp_usart.c ****     //     while (1)
  41:bsp/usart/bsp_usart.c ****     //         LOGERROR("[bsp_usart] USART exceed max instance count!");
  42:bsp/usart/bsp_usart.c **** 
  43:bsp/usart/bsp_usart.c ****     // for (uint8_t i = 0; i < idx; i++) // æ£€æŸ¥æ˜¯å¦å·²ç»æ³¨å†Œè¿‡
  44:bsp/usart/bsp_usart.c ****     //     if (usart_instance[i]->usart_handle == init_config->usart_handle)
  45:bsp/usart/bsp_usart.c ****     //         while (1)
  46:bsp/usart/bsp_usart.c ****     //             LOGERROR("[bsp_usart] USART instance already registered!");
  47:bsp/usart/bsp_usart.c **** 
  48:bsp/usart/bsp_usart.c ****     USARTInstance *instance = (USARTInstance *)malloc(sizeof(USARTInstance));
  85              		.loc 1 48 5 is_stmt 1 view .LVU9
  86              		.loc 1 48 48 is_stmt 0 view .LVU10
  87 0004 4FF48670 		mov	r0, #268
  88              	.LVL4:
  89              		.loc 1 48 48 view .LVU11
  90 0008 FFF7FEFF 		bl	malloc
  91              	.LVL5:
  92 000c 0446     		mov	r4, r0
  93              	.LVL6:
  49:bsp/usart/bsp_usart.c ****     memset(instance, 0, sizeof(USARTInstance));
  94              		.loc 1 49 5 is_stmt 1 view .LVU12
  95 000e 4FF48672 		mov	r2, #268
  96 0012 0021     		movs	r1, #0
  97 0014 FFF7FEFF 		bl	memset
  98              	.LVL7:
  50:bsp/usart/bsp_usart.c **** 
  51:bsp/usart/bsp_usart.c ****     instance->usart_handle = init_config->usart_handle;
  99              		.loc 1 51 5 view .LVU13
 100              		.loc 1 51 41 is_stmt 0 view .LVU14
 101 0018 6B68     		ldr	r3, [r5, #4]
 102              		.loc 1 51 28 view .LVU15
 103 001a C4F80431 		str	r3, [r4, #260]
  52:bsp/usart/bsp_usart.c ****     instance->recv_buff_size = init_config->recv_buff_size;
 104              		.loc 1 52 5 is_stmt 1 view .LVU16
 105              		.loc 1 52 43 is_stmt 0 view .LVU17
 106 001e 2B78     		ldrb	r3, [r5]	@ zero_extendqisi2
 107              		.loc 1 52 30 view .LVU18
 108 0020 84F80031 		strb	r3, [r4, #256]
  53:bsp/usart/bsp_usart.c ****     instance->module_callback = init_config->module_callback;
 109              		.loc 1 53 5 is_stmt 1 view .LVU19
 110              		.loc 1 53 44 is_stmt 0 view .LVU20
 111 0024 AB68     		ldr	r3, [r5, #8]
 112              		.loc 1 53 31 view .LVU21
 113 0026 C4F80831 		str	r3, [r4, #264]
  54:bsp/usart/bsp_usart.c **** 
  55:bsp/usart/bsp_usart.c ****     usart_instance[idx++] = instance;
 114              		.loc 1 55 5 is_stmt 1 view .LVU22
 115              		.loc 1 55 23 is_stmt 0 view .LVU23
 116 002a 064A     		ldr	r2, .L5
 117 002c 1378     		ldrb	r3, [r2]	@ zero_extendqisi2
 118 002e 591C     		adds	r1, r3, #1
 119 0030 1170     		strb	r1, [r2]
ARM GAS  C:\Users\HUAWEI\AppData\Local\Temp\ccMknBIa.s 			page 4


 120              		.loc 1 55 27 view .LVU24
 121 0032 054A     		ldr	r2, .L5+4
 122 0034 42F82340 		str	r4, [r2, r3, lsl #2]
  56:bsp/usart/bsp_usart.c ****     USARTServiceInit(instance);
 123              		.loc 1 56 5 is_stmt 1 view .LVU25
 124 0038 2046     		mov	r0, r4
 125 003a FFF7FEFF 		bl	USARTServiceInit
 126              	.LVL8:
  57:bsp/usart/bsp_usart.c ****     return instance;
 127              		.loc 1 57 5 view .LVU26
  58:bsp/usart/bsp_usart.c **** }
 128              		.loc 1 58 1 is_stmt 0 view .LVU27
 129 003e 2046     		mov	r0, r4
 130 0040 38BD     		pop	{r3, r4, r5, pc}
 131              	.LVL9:
 132              	.L6:
 133              		.loc 1 58 1 view .LVU28
 134 0042 00BF     		.align	2
 135              	.L5:
 136 0044 00000000 		.word	.LANCHOR0
 137 0048 00000000 		.word	.LANCHOR1
 138              		.cfi_endproc
 139              	.LFE135:
 141              		.section	.text.USARTSend,"ax",%progbits
 142              		.align	1
 143              		.global	USARTSend
 144              		.syntax unified
 145              		.thumb
 146              		.thumb_func
 148              	USARTSend:
 149              	.LVL10:
 150              	.LFB136:
  59:bsp/usart/bsp_usart.c **** 
  60:bsp/usart/bsp_usart.c **** /* é€šç”¨ä¸²å£å‘é€å‡½æ•° */
  61:bsp/usart/bsp_usart.c **** void USARTSend(USARTInstance *_instance, uint8_t *send_buf, uint16_t send_size, USART_TRANSFER_MODE
  62:bsp/usart/bsp_usart.c **** {
 151              		.loc 1 62 1 is_stmt 1 view -0
 152              		.cfi_startproc
 153              		@ args = 0, pretend = 0, frame = 0
 154              		@ frame_needed = 0, uses_anonymous_args = 0
 155              		.loc 1 62 1 is_stmt 0 view .LVU30
 156 0000 08B5     		push	{r3, lr}
 157              	.LCFI2:
 158              		.cfi_def_cfa_offset 8
 159              		.cfi_offset 3, -8
 160              		.cfi_offset 14, -4
  63:bsp/usart/bsp_usart.c ****     switch (mode)
 161              		.loc 1 63 5 is_stmt 1 view .LVU31
 162 0002 022B     		cmp	r3, #2
 163 0004 0AD0     		beq	.L8
 164 0006 032B     		cmp	r3, #3
 165 0008 0DD0     		beq	.L9
 166 000a 012B     		cmp	r3, #1
 167 000c 00D0     		beq	.L13
 168              	.L10:
  64:bsp/usart/bsp_usart.c ****     {
  65:bsp/usart/bsp_usart.c ****     case USART_TRANSFER_BLOCKING:
ARM GAS  C:\Users\HUAWEI\AppData\Local\Temp\ccMknBIa.s 			page 5


  66:bsp/usart/bsp_usart.c ****         HAL_UART_Transmit(_instance->usart_handle, send_buf, send_size, 100);
  67:bsp/usart/bsp_usart.c ****         break;
  68:bsp/usart/bsp_usart.c ****     case USART_TRANSFER_IT:
  69:bsp/usart/bsp_usart.c ****         HAL_UART_Transmit_IT(_instance->usart_handle, send_buf, send_size);
  70:bsp/usart/bsp_usart.c ****         break;
  71:bsp/usart/bsp_usart.c ****     case USART_TRANSFER_DMA:
  72:bsp/usart/bsp_usart.c ****         HAL_UART_Transmit_DMA(_instance->usart_handle, send_buf, send_size);
  73:bsp/usart/bsp_usart.c ****         break;
  74:bsp/usart/bsp_usart.c ****     default:
  75:bsp/usart/bsp_usart.c ****         while (1)
 169              		.loc 1 75 9 discriminator 1 view .LVU32
  76:bsp/usart/bsp_usart.c ****             ; // illegal mode! check your code context! æ£€æŸ¥å®šä¹‰instanceçš„ä»£ç ä¸Šä¸‹æ–‡,å¯è
 170              		.loc 1 76 13 discriminator 1 view .LVU33
  75:bsp/usart/bsp_usart.c ****             ; // illegal mode! check your code context! æ£€æŸ¥å®šä¹‰instanceçš„ä»£ç ä¸Šä¸‹æ–‡,å¯è
 171              		.loc 1 75 15 discriminator 1 view .LVU34
 172 000e FEE7     		b	.L10
 173              	.L13:
  66:bsp/usart/bsp_usart.c ****         break;
 174              		.loc 1 66 9 view .LVU35
 175 0010 6423     		movs	r3, #100
 176              	.LVL11:
  66:bsp/usart/bsp_usart.c ****         break;
 177              		.loc 1 66 9 is_stmt 0 view .LVU36
 178 0012 D0F80401 		ldr	r0, [r0, #260]
 179              	.LVL12:
  66:bsp/usart/bsp_usart.c ****         break;
 180              		.loc 1 66 9 view .LVU37
 181 0016 FFF7FEFF 		bl	HAL_UART_Transmit
 182              	.LVL13:
  67:bsp/usart/bsp_usart.c ****     case USART_TRANSFER_IT:
 183              		.loc 1 67 9 is_stmt 1 view .LVU38
 184              	.L7:
  77:bsp/usart/bsp_usart.c ****         break;
  78:bsp/usart/bsp_usart.c ****     }
  79:bsp/usart/bsp_usart.c **** }
 185              		.loc 1 79 1 is_stmt 0 view .LVU39
 186 001a 08BD     		pop	{r3, pc}
 187              	.LVL14:
 188              	.L8:
  69:bsp/usart/bsp_usart.c ****         break;
 189              		.loc 1 69 9 is_stmt 1 view .LVU40
 190 001c D0F80401 		ldr	r0, [r0, #260]
 191              	.LVL15:
  69:bsp/usart/bsp_usart.c ****         break;
 192              		.loc 1 69 9 is_stmt 0 view .LVU41
 193 0020 FFF7FEFF 		bl	HAL_UART_Transmit_IT
 194              	.LVL16:
  70:bsp/usart/bsp_usart.c ****     case USART_TRANSFER_DMA:
 195              		.loc 1 70 9 is_stmt 1 view .LVU42
 196 0024 F9E7     		b	.L7
 197              	.LVL17:
 198              	.L9:
  72:bsp/usart/bsp_usart.c ****         break;
 199              		.loc 1 72 9 view .LVU43
 200 0026 D0F80401 		ldr	r0, [r0, #260]
 201              	.LVL18:
  72:bsp/usart/bsp_usart.c ****         break;
ARM GAS  C:\Users\HUAWEI\AppData\Local\Temp\ccMknBIa.s 			page 6


 202              		.loc 1 72 9 is_stmt 0 view .LVU44
 203 002a FFF7FEFF 		bl	HAL_UART_Transmit_DMA
 204              	.LVL19:
  73:bsp/usart/bsp_usart.c ****     default:
 205              		.loc 1 73 9 is_stmt 1 view .LVU45
 206 002e F4E7     		b	.L7
 207              		.cfi_endproc
 208              	.LFE136:
 210              		.section	.text.USART_JY61P_SEND,"ax",%progbits
 211              		.align	1
 212              		.global	USART_JY61P_SEND
 213              		.syntax unified
 214              		.thumb
 215              		.thumb_func
 217              	USART_JY61P_SEND:
 218              	.LVL20:
 219              	.LFB137:
  80:bsp/usart/bsp_usart.c **** 
  81:bsp/usart/bsp_usart.c **** /* è¯¥å‡½æ•°æ˜¯ä¼ æ„Ÿå™¨å‘é€æ•°æ®ä¸“ç”¨å‡½æ•° */
  82:bsp/usart/bsp_usart.c **** void USART_JY61P_SEND(uint8_t *send_buf, uint16_t send_size)
  83:bsp/usart/bsp_usart.c **** {
 220              		.loc 1 83 1 view -0
 221              		.cfi_startproc
 222              		@ args = 0, pretend = 0, frame = 0
 223              		@ frame_needed = 0, uses_anonymous_args = 0
 224              		.loc 1 83 1 is_stmt 0 view .LVU47
 225 0000 08B5     		push	{r3, lr}
 226              	.LCFI3:
 227              		.cfi_def_cfa_offset 8
 228              		.cfi_offset 3, -8
 229              		.cfi_offset 14, -4
 230 0002 0A46     		mov	r2, r1
  84:bsp/usart/bsp_usart.c ****     HAL_UART_Transmit(&huart3, send_buf, send_size, 1);
 231              		.loc 1 84 5 is_stmt 1 view .LVU48
 232 0004 0123     		movs	r3, #1
 233 0006 0146     		mov	r1, r0
 234              	.LVL21:
 235              		.loc 1 84 5 is_stmt 0 view .LVU49
 236 0008 0148     		ldr	r0, .L16
 237              	.LVL22:
 238              		.loc 1 84 5 view .LVU50
 239 000a FFF7FEFF 		bl	HAL_UART_Transmit
 240              	.LVL23:
  85:bsp/usart/bsp_usart.c **** }
 241              		.loc 1 85 1 view .LVU51
 242 000e 08BD     		pop	{r3, pc}
 243              	.L17:
 244              		.align	2
 245              	.L16:
 246 0010 00000000 		.word	huart3
 247              		.cfi_endproc
 248              	.LFE137:
 250              		.section	.text.USARTIsReady,"ax",%progbits
 251              		.align	1
 252              		.global	USARTIsReady
 253              		.syntax unified
 254              		.thumb
ARM GAS  C:\Users\HUAWEI\AppData\Local\Temp\ccMknBIa.s 			page 7


 255              		.thumb_func
 257              	USARTIsReady:
 258              	.LVL24:
 259              	.LFB138:
  86:bsp/usart/bsp_usart.c **** 
  87:bsp/usart/bsp_usart.c **** /* ä¸²å£å‘é€æ—¶,gstateä¼šè¢«è®¾ä¸ºBUSY_TX */
  88:bsp/usart/bsp_usart.c **** uint8_t USARTIsReady(USARTInstance *_instance)
  89:bsp/usart/bsp_usart.c **** {
 260              		.loc 1 89 1 is_stmt 1 view -0
 261              		.cfi_startproc
 262              		@ args = 0, pretend = 0, frame = 0
 263              		@ frame_needed = 0, uses_anonymous_args = 0
 264              		@ link register save eliminated.
  90:bsp/usart/bsp_usart.c ****     if (_instance->usart_handle->gState | HAL_UART_STATE_BUSY_TX)
 265              		.loc 1 90 5 view .LVU53
 266              		.loc 1 90 18 is_stmt 0 view .LVU54
 267 0000 D0F80431 		ldr	r3, [r0, #260]
 268              		.loc 1 90 32 view .LVU55
 269 0004 93F84130 		ldrb	r3, [r3, #65]	@ zero_extendqisi2
  91:bsp/usart/bsp_usart.c ****         return 0;
 270              		.loc 1 91 9 is_stmt 1 view .LVU56
  92:bsp/usart/bsp_usart.c ****     else
  93:bsp/usart/bsp_usart.c ****         return 1;
  94:bsp/usart/bsp_usart.c **** }
 271              		.loc 1 94 1 is_stmt 0 view .LVU57
 272 0008 0020     		movs	r0, #0
 273              	.LVL25:
 274              		.loc 1 94 1 view .LVU58
 275 000a 7047     		bx	lr
 276              		.cfi_endproc
 277              	.LFE138:
 279              		.section	.text.HAL_UARTEx_RxEventCallback,"ax",%progbits
 280              		.align	1
 281              		.global	HAL_UARTEx_RxEventCallback
 282              		.syntax unified
 283              		.thumb
 284              		.thumb_func
 286              	HAL_UARTEx_RxEventCallback:
 287              	.LVL26:
 288              	.LFB139:
  95:bsp/usart/bsp_usart.c **** 
  96:bsp/usart/bsp_usart.c **** // void HAL_UART_RxCpltCallback(UART_HandleTypeDef *huart)
  97:bsp/usart/bsp_usart.c **** // {
  98:bsp/usart/bsp_usart.c **** //   for (uint8_t i = 0; i < idx; ++i)
  99:bsp/usart/bsp_usart.c **** //     { // find the instance which is being handled
 100:bsp/usart/bsp_usart.c **** //         if (huart == usart_instance[i]->usart_handle)
 101:bsp/usart/bsp_usart.c **** //         { // call the callback function if it is not NULL
 102:bsp/usart/bsp_usart.c **** //             if (usart_instance[i]->module_callback != NULL)
 103:bsp/usart/bsp_usart.c **** //             {
 104:bsp/usart/bsp_usart.c **** //                 usart_instance[i]->module_callback();
 105:bsp/usart/bsp_usart.c **** //                 memset(usart_instance[i]->recv_buff, 0, usart_instance[i]->recv_buff_size); // æ
 106:bsp/usart/bsp_usart.c **** //             }
 107:bsp/usart/bsp_usart.c **** //             // HAL_UART_Receive_IT(usart_instance[i]->usart_handle, usart_instance[i]->recv_buff
 108:bsp/usart/bsp_usart.c **** //             return; // break the loop
 109:bsp/usart/bsp_usart.c **** //         }
 110:bsp/usart/bsp_usart.c **** //     }
 111:bsp/usart/bsp_usart.c **** // }
ARM GAS  C:\Users\HUAWEI\AppData\Local\Temp\ccMknBIa.s 			page 8


 112:bsp/usart/bsp_usart.c **** 
 113:bsp/usart/bsp_usart.c **** /**
 114:bsp/usart/bsp_usart.c ****  * @brief æ¯æ¬¡dma/idleä¸­æ–­å‘ç”Ÿæ—¶ï¼Œéƒ½ä¼šè°ƒç”¨æ­¤å‡½æ•°.å¯¹äºæ¯ä¸ªuartå®ä¾‹ä¼šè°ƒç”¨å¯¹å
 115:bsp/usart/bsp_usart.c ****  *        ä¾‹å¦‚:è§†è§‰åè®®è§£æ/é¥æ§å™¨è§£æ/è£åˆ¤ç³»ç»Ÿè§£æ
 116:bsp/usart/bsp_usart.c ****  *
 117:bsp/usart/bsp_usart.c ****  * @note  é€šè¿‡__HAL_DMA_DISABLE_IT(huart->hdmarx,DMA_IT_HT)å…³é—­dma half transferä¸­æ–­é˜²æ­¢ä¸¤
 118:bsp/usart/bsp_usart.c ****  *        è¿™æ˜¯HALåº“çš„ä¸€ä¸ªè®¾è®¡å¤±è¯¯,å‘ç”ŸDMAä¼ è¾“å®Œæˆ/åŠå®Œæˆä»¥åŠä¸²å£IDLEä¸­æ–­éƒ
 119:bsp/usart/bsp_usart.c ****  *        æˆ‘ä»¬åªå¸Œæœ›å¤„ç†ï¼Œå› æ­¤ç›´æ¥å…³é—­DMAåŠä¼ è¾“ä¸­æ–­ç¬¬ä¸€ç§å’Œç¬¬ä¸‰ç§æƒ…å†µ
 120:bsp/usart/bsp_usart.c ****  *
 121:bsp/usart/bsp_usart.c ****  * @param huart å‘ç”Ÿä¸­æ–­çš„ä¸²å£
 122:bsp/usart/bsp_usart.c ****  * @param Size æ­¤æ¬¡æ¥æ”¶åˆ°çš„æ€»æ•°å±…é‡,æš‚æ—¶æ²¡ç”¨
 123:bsp/usart/bsp_usart.c ****  */
 124:bsp/usart/bsp_usart.c **** void HAL_UARTEx_RxEventCallback(UART_HandleTypeDef *huart, uint16_t Size)
 125:bsp/usart/bsp_usart.c **** {
 289              		.loc 1 125 1 is_stmt 1 view -0
 290              		.cfi_startproc
 291              		@ args = 0, pretend = 0, frame = 0
 292              		@ frame_needed = 0, uses_anonymous_args = 0
 293              		.loc 1 125 1 is_stmt 0 view .LVU60
 294 0000 38B5     		push	{r3, r4, r5, lr}
 295              	.LCFI4:
 296              		.cfi_def_cfa_offset 16
 297              		.cfi_offset 3, -16
 298              		.cfi_offset 4, -12
 299              		.cfi_offset 5, -8
 300              		.cfi_offset 14, -4
 301 0002 0C46     		mov	r4, r1
 126:bsp/usart/bsp_usart.c ****     for (uint8_t i = 0; i < idx; ++i)
 302              		.loc 1 126 5 is_stmt 1 view .LVU61
 303              	.LBB2:
 304              		.loc 1 126 10 view .LVU62
 305              	.LVL27:
 306              		.loc 1 126 18 is_stmt 0 view .LVU63
 307 0004 0023     		movs	r3, #0
 308              		.loc 1 126 5 view .LVU64
 309 0006 01E0     		b	.L20
 310              	.LVL28:
 311              	.L21:
 312              		.loc 1 126 34 is_stmt 1 discriminator 2 view .LVU65
 313 0008 0133     		adds	r3, r3, #1
 314              	.LVL29:
 315              		.loc 1 126 34 is_stmt 0 discriminator 2 view .LVU66
 316 000a DBB2     		uxtb	r3, r3
 317              	.LVL30:
 318              	.L20:
 319              		.loc 1 126 25 is_stmt 1 discriminator 1 view .LVU67
 320              		.loc 1 126 27 is_stmt 0 discriminator 1 view .LVU68
 321 000c 104A     		ldr	r2, .L26
 322 000e 92F800C0 		ldrb	ip, [r2]	@ zero_extendqisi2
 323              		.loc 1 126 5 discriminator 1 view .LVU69
 324 0012 9C45     		cmp	ip, r3
 325 0014 1BD9     		bls	.L19
 127:bsp/usart/bsp_usart.c ****     { // find the instance which is being handled
 128:bsp/usart/bsp_usart.c ****         if (huart == usart_instance[i]->usart_handle)
 326              		.loc 1 128 9 is_stmt 1 view .LVU70
 327              		.loc 1 128 36 is_stmt 0 view .LVU71
 328 0016 1D46     		mov	r5, r3
ARM GAS  C:\Users\HUAWEI\AppData\Local\Temp\ccMknBIa.s 			page 9


 329 0018 0E4A     		ldr	r2, .L26+4
 330 001a 52F82320 		ldr	r2, [r2, r3, lsl #2]
 331              		.loc 1 128 12 view .LVU72
 332 001e D2F80411 		ldr	r1, [r2, #260]
 333 0022 8142     		cmp	r1, r0
 334 0024 F0D1     		bne	.L21
 129:bsp/usart/bsp_usart.c ****         { // call the callback function if it is not NULL
 130:bsp/usart/bsp_usart.c ****             if (usart_instance[i]->module_callback != NULL)
 335              		.loc 1 130 13 is_stmt 1 view .LVU73
 336              		.loc 1 130 34 is_stmt 0 view .LVU74
 337 0026 D2F80831 		ldr	r3, [r2, #264]
 338              	.LVL31:
 339              		.loc 1 130 16 view .LVU75
 340 002a 3BB1     		cbz	r3, .L22
 341              	.LBB3:
 131:bsp/usart/bsp_usart.c ****             {
 132:bsp/usart/bsp_usart.c ****                 usart_instance[i]->module_callback();
 342              		.loc 1 132 17 is_stmt 1 view .LVU76
 343 002c 9847     		blx	r3
 344              	.LVL32:
 133:bsp/usart/bsp_usart.c ****                 memset(usart_instance[i]->recv_buff, 0, Size); // æ¥æ”¶ç»“æŸåæ¸…ç©ºbuffer,å¯¹äº
 345              		.loc 1 133 17 view .LVU77
 346 002e 2246     		mov	r2, r4
 347 0030 0021     		movs	r1, #0
 348 0032 084B     		ldr	r3, .L26+4
 349 0034 53F82500 		ldr	r0, [r3, r5, lsl #2]
 350 0038 FFF7FEFF 		bl	memset
 351              	.LVL33:
 352              	.L22:
 353              	.LBE3:
 134:bsp/usart/bsp_usart.c ****             }
 135:bsp/usart/bsp_usart.c ****             HAL_UARTEx_ReceiveToIdle_DMA(usart_instance[i]->usart_handle, usart_instance[i]->recv_b
 354              		.loc 1 135 13 view .LVU78
 355              		.loc 1 135 56 is_stmt 0 view .LVU79
 356 003c 054B     		ldr	r3, .L26+4
 357 003e 53F82510 		ldr	r1, [r3, r5, lsl #2]
 358              		.loc 1 135 13 view .LVU80
 359 0042 91F80021 		ldrb	r2, [r1, #256]	@ zero_extendqisi2
 360 0046 D1F80401 		ldr	r0, [r1, #260]
 361 004a FFF7FEFF 		bl	HAL_UARTEx_ReceiveToIdle_DMA
 362              	.LVL34:
 136:bsp/usart/bsp_usart.c ****             // __HAL_DMA_DISABLE_IT(usart_instance[i]->usart_handle->hdmarx, DMA_IT_HT);
 137:bsp/usart/bsp_usart.c ****             return; // break the loop
 363              		.loc 1 137 13 is_stmt 1 view .LVU81
 364              	.L19:
 365              		.loc 1 137 13 is_stmt 0 view .LVU82
 366              	.LBE2:
 138:bsp/usart/bsp_usart.c ****         }
 139:bsp/usart/bsp_usart.c ****     }
 140:bsp/usart/bsp_usart.c **** }
 367              		.loc 1 140 1 view .LVU83
 368 004e 38BD     		pop	{r3, r4, r5, pc}
 369              	.L27:
 370              		.align	2
 371              	.L26:
 372 0050 00000000 		.word	.LANCHOR0
 373 0054 00000000 		.word	.LANCHOR1
ARM GAS  C:\Users\HUAWEI\AppData\Local\Temp\ccMknBIa.s 			page 10


 374              		.cfi_endproc
 375              	.LFE139:
 377              		.section	.text.HAL_UART_ErrorCallback,"ax",%progbits
 378              		.align	1
 379              		.global	HAL_UART_ErrorCallback
 380              		.syntax unified
 381              		.thumb
 382              		.thumb_func
 384              	HAL_UART_ErrorCallback:
 385              	.LVL35:
 386              	.LFB140:
 141:bsp/usart/bsp_usart.c **** 
 142:bsp/usart/bsp_usart.c **** /**
 143:bsp/usart/bsp_usart.c ****  * @brief å½“ä¸²å£å‘é€/æ¥æ”¶å‡ºç°é”™è¯¯æ—¶,ä¼šè°ƒç”¨æ­¤å‡½æ•°,æ­¤æ—¶è¿™ä¸ªå‡½æ•°è¦åšçš„å°±æ˜
 144:bsp/usart/bsp_usart.c ****  *
 145:bsp/usart/bsp_usart.c ****  * @note  æœ€å¸¸è§çš„é”™è¯¯:å¥‡å¶æ ¡éªŒ/æº¢å‡º/å¸§é”™è¯¯
 146:bsp/usart/bsp_usart.c ****  *
 147:bsp/usart/bsp_usart.c ****  * @param huart å‘ç”Ÿé”™è¯¯çš„ä¸²å£
 148:bsp/usart/bsp_usart.c ****  */
 149:bsp/usart/bsp_usart.c **** void HAL_UART_ErrorCallback(UART_HandleTypeDef *huart)
 150:bsp/usart/bsp_usart.c **** {
 387              		.loc 1 150 1 is_stmt 1 view -0
 388              		.cfi_startproc
 389              		@ args = 0, pretend = 0, frame = 0
 390              		@ frame_needed = 0, uses_anonymous_args = 0
 391              		.loc 1 150 1 is_stmt 0 view .LVU85
 392 0000 08B5     		push	{r3, lr}
 393              	.LCFI5:
 394              		.cfi_def_cfa_offset 8
 395              		.cfi_offset 3, -8
 396              		.cfi_offset 14, -4
 397 0002 8446     		mov	ip, r0
 151:bsp/usart/bsp_usart.c ****     for (uint8_t i = 0; i < idx; ++i)
 398              		.loc 1 151 5 is_stmt 1 view .LVU86
 399              	.LBB4:
 400              		.loc 1 151 10 view .LVU87
 401              	.LVL36:
 402              		.loc 1 151 18 is_stmt 0 view .LVU88
 403 0004 0023     		movs	r3, #0
 404              		.loc 1 151 5 view .LVU89
 405 0006 01E0     		b	.L29
 406              	.LVL37:
 407              	.L30:
 408              		.loc 1 151 34 is_stmt 1 discriminator 2 view .LVU90
 409 0008 0133     		adds	r3, r3, #1
 410              	.LVL38:
 411              		.loc 1 151 34 is_stmt 0 discriminator 2 view .LVU91
 412 000a DBB2     		uxtb	r3, r3
 413              	.LVL39:
 414              	.L29:
 415              		.loc 1 151 25 is_stmt 1 discriminator 1 view .LVU92
 416              		.loc 1 151 27 is_stmt 0 discriminator 1 view .LVU93
 417 000c 074A     		ldr	r2, .L34
 418 000e 1278     		ldrb	r2, [r2]	@ zero_extendqisi2
 419              		.loc 1 151 5 discriminator 1 view .LVU94
 420 0010 9A42     		cmp	r2, r3
 421 0012 0AD9     		bls	.L28
ARM GAS  C:\Users\HUAWEI\AppData\Local\Temp\ccMknBIa.s 			page 11


 152:bsp/usart/bsp_usart.c ****     {
 153:bsp/usart/bsp_usart.c ****         if (huart == usart_instance[i]->usart_handle)
 422              		.loc 1 153 9 is_stmt 1 view .LVU95
 423              		.loc 1 153 36 is_stmt 0 view .LVU96
 424 0014 064A     		ldr	r2, .L34+4
 425 0016 52F82310 		ldr	r1, [r2, r3, lsl #2]
 426              		.loc 1 153 39 view .LVU97
 427 001a D1F80401 		ldr	r0, [r1, #260]
 428              		.loc 1 153 12 view .LVU98
 429 001e 6045     		cmp	r0, ip
 430 0020 F2D1     		bne	.L30
 154:bsp/usart/bsp_usart.c ****         {
 155:bsp/usart/bsp_usart.c ****             HAL_UARTEx_ReceiveToIdle_DMA(usart_instance[i]->usart_handle, usart_instance[i]->recv_b
 431              		.loc 1 155 13 is_stmt 1 view .LVU99
 432 0022 91F80021 		ldrb	r2, [r1, #256]	@ zero_extendqisi2
 433 0026 FFF7FEFF 		bl	HAL_UARTEx_ReceiveToIdle_DMA
 434              	.LVL40:
 156:bsp/usart/bsp_usart.c ****             // __HAL_DMA_DISABLE_IT(usart_instance[i]->usart_handle->hdmarx, DMA_IT_HT);
 157:bsp/usart/bsp_usart.c ****             // LOGWARNING("[bsp_usart] USART error callback triggered, instance idx [%d]", i);
 158:bsp/usart/bsp_usart.c ****             return;
 435              		.loc 1 158 13 view .LVU100
 436              	.L28:
 437              		.loc 1 158 13 is_stmt 0 view .LVU101
 438              	.LBE4:
 159:bsp/usart/bsp_usart.c ****         }
 160:bsp/usart/bsp_usart.c ****     }
 161:bsp/usart/bsp_usart.c **** }...
 439              		.loc 1 161 1 view .LVU102
 440 002a 08BD     		pop	{r3, pc}
 441              	.L35:
 442              		.align	2
 443              	.L34:
 444 002c 00000000 		.word	.LANCHOR0
 445 0030 00000000 		.word	.LANCHOR1
 446              		.cfi_endproc
 447              	.LFE140:
 449              		.section	.bss.idx,"aw",%nobits
 450              		.set	.LANCHOR0,. + 0
 453              	idx:
 454 0000 00       		.space	1
 455              		.section	.bss.usart_instance,"aw",%nobits
 456              		.align	2
 457              		.set	.LANCHOR1,. + 0
 460              	usart_instance:
 461 0000 00000000 		.space	12
 461      00000000 
 461      00000000 
 462              		.text
 463              	.Letext0:
 464              		.file 2 "d:\\baidunetdiskdownload\\archive\\ec\\vscode_ozone\\gcc-arm-none-eabi-10.3-2021.10-win32
 465              		.file 3 "d:\\baidunetdiskdownload\\archive\\ec\\vscode_ozone\\gcc-arm-none-eabi-10.3-2021.10-win32
 466              		.file 4 "Drivers/CMSIS/Device/ST/STM32F4xx/Include/stm32f405xx.h"
 467              		.file 5 "Drivers/STM32F4xx_HAL_Driver/Inc/stm32f4xx_hal_def.h"
 468              		.file 6 "Drivers/STM32F4xx_HAL_Driver/Inc/stm32f4xx_hal_dma.h"
 469              		.file 7 "Drivers/STM32F4xx_HAL_Driver/Inc/stm32f4xx_hal_uart.h"
 470              		.file 8 "bsp/usart/bsp_usart.h"
 471              		.file 9 "Core/Inc/usart.h"
ARM GAS  C:\Users\HUAWEI\AppData\Local\Temp\ccMknBIa.s 			page 12


 472              		.file 10 "<built-in>"
 473              		.file 11 "d:\\baidunetdiskdownload\\archive\\ec\\vscode_ozone\\gcc-arm-none-eabi-10.3-2021.10-win3
ARM GAS  C:\Users\HUAWEI\AppData\Local\Temp\ccMknBIa.s 			page 13


DEFINED SYMBOLS
                            *ABS*:00000000 bsp_usart.c
C:\Users\HUAWEI\AppData\Local\Temp\ccMknBIa.s:20     .text.USARTServiceInit:00000000 $t
C:\Users\HUAWEI\AppData\Local\Temp\ccMknBIa.s:26     .text.USARTServiceInit:00000000 USARTServiceInit
C:\Users\HUAWEI\AppData\Local\Temp\ccMknBIa.s:63     .text.USARTRegister:00000000 $t
C:\Users\HUAWEI\AppData\Local\Temp\ccMknBIa.s:69     .text.USARTRegister:00000000 USARTRegister
C:\Users\HUAWEI\AppData\Local\Temp\ccMknBIa.s:136    .text.USARTRegister:00000044 $d
C:\Users\HUAWEI\AppData\Local\Temp\ccMknBIa.s:142    .text.USARTSend:00000000 $t
C:\Users\HUAWEI\AppData\Local\Temp\ccMknBIa.s:148    .text.USARTSend:00000000 USARTSend
C:\Users\HUAWEI\AppData\Local\Temp\ccMknBIa.s:211    .text.USART_JY61P_SEND:00000000 $t
C:\Users\HUAWEI\AppData\Local\Temp\ccMknBIa.s:217    .text.USART_JY61P_SEND:00000000 USART_JY61P_SEND
C:\Users\HUAWEI\AppData\Local\Temp\ccMknBIa.s:246    .text.USART_JY61P_SEND:00000010 $d
C:\Users\HUAWEI\AppData\Local\Temp\ccMknBIa.s:251    .text.USARTIsReady:00000000 $t
C:\Users\HUAWEI\AppData\Local\Temp\ccMknBIa.s:257    .text.USARTIsReady:00000000 USARTIsReady
C:\Users\HUAWEI\AppData\Local\Temp\ccMknBIa.s:280    .text.HAL_UARTEx_RxEventCallback:00000000 $t
C:\Users\HUAWEI\AppData\Local\Temp\ccMknBIa.s:286    .text.HAL_UARTEx_RxEventCallback:00000000 HAL_UARTEx_RxEventCallback
C:\Users\HUAWEI\AppData\Local\Temp\ccMknBIa.s:372    .text.HAL_UARTEx_RxEventCallback:00000050 $d
C:\Users\HUAWEI\AppData\Local\Temp\ccMknBIa.s:378    .text.HAL_UART_ErrorCallback:00000000 $t
C:\Users\HUAWEI\AppData\Local\Temp\ccMknBIa.s:384    .text.HAL_UART_ErrorCallback:00000000 HAL_UART_ErrorCallback
C:\Users\HUAWEI\AppData\Local\Temp\ccMknBIa.s:444    .text.HAL_UART_ErrorCallback:0000002c $d
C:\Users\HUAWEI\AppData\Local\Temp\ccMknBIa.s:453    .bss.idx:00000000 idx
C:\Users\HUAWEI\AppData\Local\Temp\ccMknBIa.s:454    .bss.idx:00000000 $d
C:\Users\HUAWEI\AppData\Local\Temp\ccMknBIa.s:456    .bss.usart_instance:00000000 $d
C:\Users\HUAWEI\AppData\Local\Temp\ccMknBIa.s:460    .bss.usart_instance:00000000 usart_instance

UNDEFINED SYMBOLS
HAL_UART_Receive_IT
malloc
memset
HAL_UART_Transmit
HAL_UART_Transmit_IT
HAL_UART_Transmit_DMA
huart3
HAL_UARTEx_ReceiveToIdle_DMA
