ARM GAS  C:\Users\HUAWEI\AppData\Local\Temp\ccJfXVyU.s 			page 1


   1              		.cpu cortex-m4
   2              		.arch armv7e-m
   3              		.fpu fpv4-sp-d16
   4              		.eabi_attribute 27, 1
   5              		.eabi_attribute 28, 1
   6              		.eabi_attribute 20, 1
   7              		.eabi_attribute 21, 1
   8              		.eabi_attribute 23, 3
   9              		.eabi_attribute 24, 1
  10              		.eabi_attribute 25, 1
  11              		.eabi_attribute 26, 1
  12              		.eabi_attribute 30, 1
  13              		.eabi_attribute 34, 1
  14              		.eabi_attribute 18, 4
  15              		.file	"JY61P.c"
  16              		.text
  17              	.Ltext0:
  18              		.cfi_sections	.debug_frame
  19              		.section	.text.JY61P_DataUpdate,"ax",%progbits
  20              		.align	1
  21              		.global	JY61P_DataUpdate
  22              		.syntax unified
  23              		.thumb
  24              		.thumb_func
  26              	JY61P_DataUpdate:
  27              	.LVL0:
  28              	.LFB141:
  29              		.file 1 "modules/JY61P/JY61P.c"
   1:modules/JY61P/JY61P.c **** #include "JY61P.h"
   2:modules/JY61P/JY61P.c **** 
   3:modules/JY61P/JY61P.c **** 
   4:modules/JY61P/JY61P.c **** // static JY61PData JY61P_data;
   5:modules/JY61P/JY61P.c **** static JY61P_Instance_s JY61P_instance;
   6:modules/JY61P/JY61P.c **** 
   7:modules/JY61P/JY61P.c **** static JY61PData *JY61P_data; // 传感器数据结构体实例
   8:modules/JY61P/JY61P.c **** 
   9:modules/JY61P/JY61P.c **** JY61PData *INS_Init(void)
  10:modules/JY61P/JY61P.c **** {
  11:modules/JY61P/JY61P.c ****     DWT_Init(168);
  12:modules/JY61P/JY61P.c ****     JY61P_data = JY61P_Init(WIT_BAUD_115200);
  13:modules/JY61P/JY61P.c ****     // WitRestartSensor();
  14:modules/JY61P/JY61P.c ****     // DWT_Delay(2);
  15:modules/JY61P/JY61P.c ****     return &JY61P_data;
  16:modules/JY61P/JY61P.c **** }
  17:modules/JY61P/JY61P.c **** 
  18:modules/JY61P/JY61P.c **** JY61PData* JY61P_Init(uint8_t uart_baud)
  19:modules/JY61P/JY61P.c **** {
  20:modules/JY61P/JY61P.c ****     
  21:modules/JY61P/JY61P.c ****     USART_Init_Config_s conf;
  22:modules/JY61P/JY61P.c ****     conf.module_callback = WITSerialDecode;
  23:modules/JY61P/JY61P.c ****     conf.usart_handle = &huart3; 
  24:modules/JY61P/JY61P.c ****     conf.recv_buff_size = 33; 
  25:modules/JY61P/JY61P.c ****     JY61P_instance.usart_instance = USARTRegister(&conf);
  26:modules/JY61P/JY61P.c **** 
  27:modules/JY61P/JY61P.c ****     WitInit(WIT_PROTOCOL_NORMAL, 0x50);
  28:modules/JY61P/JY61P.c ****     WitSerialWriteRegister(USART_JY61P_SEND); // 注册传感器串口发送函数
  29:modules/JY61P/JY61P.c ****     WitDelayMsRegister(DWT_Delay_ms);// 注册传感器延时函数
ARM GAS  C:\Users\HUAWEI\AppData\Local\Temp\ccJfXVyU.s 			page 2


  30:modules/JY61P/JY61P.c ****     WitRegisterCallBack(JY61P_DataUpdate);// 注册传感器数据更新函数
  31:modules/JY61P/JY61P.c ****     WitSetUartBaud(uart_baud);
  32:modules/JY61P/JY61P.c ****     WitStartAccCali();
  33:modules/JY61P/JY61P.c ****     DWT_Delay_ms(100);
  34:modules/JY61P/JY61P.c ****     return &JY61P_instance.JY61P_data;
  35:modules/JY61P/JY61P.c **** }
  36:modules/JY61P/JY61P.c **** 
  37:modules/JY61P/JY61P.c **** void JY61P_ReadData()
  38:modules/JY61P/JY61P.c **** {
  39:modules/JY61P/JY61P.c ****     WitReadReg(AX, 3);
  40:modules/JY61P/JY61P.c ****     DWT_Delay(0.1);
  41:modules/JY61P/JY61P.c ****     WitReadReg(GX, 3);
  42:modules/JY61P/JY61P.c ****     DWT_Delay(0.1);
  43:modules/JY61P/JY61P.c ****     WitReadReg(HX, 3);
  44:modules/JY61P/JY61P.c ****     DWT_Delay(0.1);
  45:modules/JY61P/JY61P.c ****     WitReadReg(Roll, 3);
  46:modules/JY61P/JY61P.c **** }
  47:modules/JY61P/JY61P.c **** 
  48:modules/JY61P/JY61P.c **** void WITSerialDecode()
  49:modules/JY61P/JY61P.c **** {
  50:modules/JY61P/JY61P.c ****     for (int i = 0; i < 33; i++)
  51:modules/JY61P/JY61P.c ****   {
  52:modules/JY61P/JY61P.c ****     // HAL_UART_Transmit_IT(&huart1, &JY61P_instance.usart_instance->recv_buff,33);
  53:modules/JY61P/JY61P.c ****     WitSerialDataIn(JY61P_instance.usart_instance->recv_buff[i]);
  54:modules/JY61P/JY61P.c ****   }
  55:modules/JY61P/JY61P.c **** }
  56:modules/JY61P/JY61P.c **** 
  57:modules/JY61P/JY61P.c **** void JY61P_DataUpdate(uint32_t uiReg, uint32_t uiRegNum)
  58:modules/JY61P/JY61P.c **** {
  30              		.loc 1 58 1 view -0
  31              		.cfi_startproc
  32              		@ args = 0, pretend = 0, frame = 0
  33              		@ frame_needed = 0, uses_anonymous_args = 0
  34              		@ link register save eliminated.
  59:modules/JY61P/JY61P.c ****     switch(uiReg)
  35              		.loc 1 59 5 view .LVU1
  36 0000 3728     		cmp	r0, #55
  37 0002 3CD0     		beq	.L9
  38 0004 3D28     		cmp	r0, #61
  39 0006 56D0     		beq	.L10
  40 0008 3428     		cmp	r0, #52
  41 000a 1BD0     		beq	.L12
  42              	.LVL1:
  43              	.L1:
  60:modules/JY61P/JY61P.c ****     {
  61:modules/JY61P/JY61P.c ****         case AX:
  62:modules/JY61P/JY61P.c ****             for(int i = 0; i < 3; i++)
  63:modules/JY61P/JY61P.c ****             {
  64:modules/JY61P/JY61P.c ****                 JY61P_instance.JY61P_data.fAcc[i] = sReg[AX+i] / 32768.0f * 16.0f;
  65:modules/JY61P/JY61P.c ****             }
  66:modules/JY61P/JY61P.c ****             // DWT_Delay(10);
  67:modules/JY61P/JY61P.c ****             break;
  68:modules/JY61P/JY61P.c ****         case GX:
  69:modules/JY61P/JY61P.c ****             for(int i = 0; i < 3; i++)
  70:modules/JY61P/JY61P.c ****             {
  71:modules/JY61P/JY61P.c ****                 JY61P_instance.JY61P_data.fGyro[i] = sReg[GX+i] / 32768.0f * 2000.0f;
  72:modules/JY61P/JY61P.c ****             }
ARM GAS  C:\Users\HUAWEI\AppData\Local\Temp\ccJfXVyU.s 			page 3


  73:modules/JY61P/JY61P.c ****             break;
  74:modules/JY61P/JY61P.c ****         case Roll: 
  75:modules/JY61P/JY61P.c ****             for(int i = 0; i < 3; i++)
  76:modules/JY61P/JY61P.c ****             {
  77:modules/JY61P/JY61P.c ****                 JY61P_instance.JY61P_data.fEuler[i] = sReg[Roll+i] / 32768.0f * 180.0f;
  78:modules/JY61P/JY61P.c ****             }
  79:modules/JY61P/JY61P.c ****             // JY61P_instance.JY61P_data.fEuler[2] = JY61P_instance.JY61P_data.fEuler[2] > 0 ? 360 
  80:modules/JY61P/JY61P.c ****             break;
  81:modules/JY61P/JY61P.c ****         default:
  82:modules/JY61P/JY61P.c ****             break;
  83:modules/JY61P/JY61P.c ****     }
  84:modules/JY61P/JY61P.c **** }
  44              		.loc 1 84 1 is_stmt 0 view .LVU2
  45 000c 7047     		bx	lr
  46              	.LVL2:
  47              	.L6:
  48              	.LBB2:
  64:modules/JY61P/JY61P.c ****             }
  49              		.loc 1 64 17 is_stmt 1 discriminator 3 view .LVU3
  64:modules/JY61P/JY61P.c ****             }
  50              		.loc 1 64 60 is_stmt 0 discriminator 3 view .LVU4
  51 000e 03F13401 		add	r1, r3, #52
  64:modules/JY61P/JY61P.c ****             }
  52              		.loc 1 64 57 discriminator 3 view .LVU5
  53 0012 2A4A     		ldr	r2, .L13
  54 0014 32F91120 		ldrsh	r2, [r2, r1, lsl #1]
  55 0018 07EE902A 		vmov	s15, r2	@ int
  64:modules/JY61P/JY61P.c ****             }
  56              		.loc 1 64 64 discriminator 3 view .LVU6
  57 001c F8EEE77A 		vcvt.f32.s32	s15, s15
  58 0020 9FED277A 		vldr.32	s14, .L13+4
  59 0024 67EE877A 		vmul.f32	s15, s15, s14
  64:modules/JY61P/JY61P.c ****             }
  60              		.loc 1 64 75 discriminator 3 view .LVU7
  61 0028 B3EE007A 		vmov.f32	s14, #1.6e+1
  62 002c 67EE877A 		vmul.f32	s15, s15, s14
  64:modules/JY61P/JY61P.c ****             }
  63              		.loc 1 64 51 discriminator 3 view .LVU8
  64 0030 991C     		adds	r1, r3, #2
  65 0032 244A     		ldr	r2, .L13+8
  66 0034 02EB8102 		add	r2, r2, r1, lsl #2
  67 0038 C2ED027A 		vstr.32	s15, [r2, #8]
  62:modules/JY61P/JY61P.c ****             {
  68              		.loc 1 62 35 is_stmt 1 discriminator 3 view .LVU9
  62:modules/JY61P/JY61P.c ****             {
  69              		.loc 1 62 36 is_stmt 0 discriminator 3 view .LVU10
  70 003c 0133     		adds	r3, r3, #1
  71              	.LVL3:
  72              	.L4:
  62:modules/JY61P/JY61P.c ****             {
  73              		.loc 1 62 28 is_stmt 1 discriminator 1 view .LVU11
  62:modules/JY61P/JY61P.c ****             {
  74              		.loc 1 62 13 is_stmt 0 discriminator 1 view .LVU12
  75 003e 022B     		cmp	r3, #2
  76 0040 E5DD     		ble	.L6
  77 0042 7047     		bx	lr
  78              	.LVL4:
ARM GAS  C:\Users\HUAWEI\AppData\Local\Temp\ccJfXVyU.s 			page 4


  79              	.L12:
  62:modules/JY61P/JY61P.c ****             {
  80              		.loc 1 62 13 discriminator 1 view .LVU13
  81              	.LBE2:
  59:modules/JY61P/JY61P.c ****     {
  82              		.loc 1 59 5 view .LVU14
  83 0044 0023     		movs	r3, #0
  84 0046 FAE7     		b	.L4
  85              	.LVL5:
  86              	.L7:
  87              	.LBB3:
  71:modules/JY61P/JY61P.c ****             }
  88              		.loc 1 71 17 is_stmt 1 discriminator 3 view .LVU15
  71:modules/JY61P/JY61P.c ****             }
  89              		.loc 1 71 61 is_stmt 0 discriminator 3 view .LVU16
  90 0048 03F13701 		add	r1, r3, #55
  71:modules/JY61P/JY61P.c ****             }
  91              		.loc 1 71 58 discriminator 3 view .LVU17
  92 004c 1B4A     		ldr	r2, .L13
  93 004e 32F91120 		ldrsh	r2, [r2, r1, lsl #1]
  94 0052 07EE902A 		vmov	s15, r2	@ int
  71:modules/JY61P/JY61P.c ****             }
  95              		.loc 1 71 65 discriminator 3 view .LVU18
  96 0056 F8EEE77A 		vcvt.f32.s32	s15, s15
  97 005a 9FED197A 		vldr.32	s14, .L13+4
  98 005e 67EE877A 		vmul.f32	s15, s15, s14
  71:modules/JY61P/JY61P.c ****             }
  99              		.loc 1 71 76 discriminator 3 view .LVU19
 100 0062 9FED197A 		vldr.32	s14, .L13+12
 101 0066 67EE877A 		vmul.f32	s15, s15, s14
  71:modules/JY61P/JY61P.c ****             }
 102              		.loc 1 71 52 discriminator 3 view .LVU20
 103 006a 991D     		adds	r1, r3, #6
 104 006c 154A     		ldr	r2, .L13+8
 105 006e 02EB8102 		add	r2, r2, r1, lsl #2
 106 0072 C2ED017A 		vstr.32	s15, [r2, #4]
  69:modules/JY61P/JY61P.c ****             {
 107              		.loc 1 69 35 is_stmt 1 discriminator 3 view .LVU21
  69:modules/JY61P/JY61P.c ****             {
 108              		.loc 1 69 36 is_stmt 0 discriminator 3 view .LVU22
 109 0076 0133     		adds	r3, r3, #1
 110              	.LVL6:
 111              	.L2:
  69:modules/JY61P/JY61P.c ****             {
 112              		.loc 1 69 28 is_stmt 1 discriminator 1 view .LVU23
  69:modules/JY61P/JY61P.c ****             {
 113              		.loc 1 69 13 is_stmt 0 discriminator 1 view .LVU24
 114 0078 022B     		cmp	r3, #2
 115 007a E5DD     		ble	.L7
 116 007c 7047     		bx	lr
 117              	.LVL7:
 118              	.L9:
  69:modules/JY61P/JY61P.c ****             {
 119              		.loc 1 69 13 discriminator 1 view .LVU25
 120              	.LBE3:
  59:modules/JY61P/JY61P.c ****     {
 121              		.loc 1 59 5 view .LVU26
ARM GAS  C:\Users\HUAWEI\AppData\Local\Temp\ccJfXVyU.s 			page 5


 122 007e 0023     		movs	r3, #0
 123 0080 FAE7     		b	.L2
 124              	.LVL8:
 125              	.L8:
 126              	.LBB4:
  77:modules/JY61P/JY61P.c ****             }
 127              		.loc 1 77 17 is_stmt 1 discriminator 3 view .LVU27
  77:modules/JY61P/JY61P.c ****             }
 128              		.loc 1 77 64 is_stmt 0 discriminator 3 view .LVU28
 129 0082 03F13D01 		add	r1, r3, #61
  77:modules/JY61P/JY61P.c ****             }
 130              		.loc 1 77 59 discriminator 3 view .LVU29
 131 0086 0D4A     		ldr	r2, .L13
 132 0088 32F91120 		ldrsh	r2, [r2, r1, lsl #1]
 133 008c 07EE902A 		vmov	s15, r2	@ int
  77:modules/JY61P/JY61P.c ****             }
 134              		.loc 1 77 68 discriminator 3 view .LVU30
 135 0090 F8EEE77A 		vcvt.f32.s32	s15, s15
 136 0094 9FED0A7A 		vldr.32	s14, .L13+4
 137 0098 67EE877A 		vmul.f32	s15, s15, s14
  77:modules/JY61P/JY61P.c ****             }
 138              		.loc 1 77 79 discriminator 3 view .LVU31
 139 009c 9FED0B7A 		vldr.32	s14, .L13+16
 140 00a0 67EE877A 		vmul.f32	s15, s15, s14
  77:modules/JY61P/JY61P.c ****             }
 141              		.loc 1 77 53 discriminator 3 view .LVU32
 142 00a4 074A     		ldr	r2, .L13+8
 143 00a6 02EB8302 		add	r2, r2, r3, lsl #2
 144 00aa C2ED017A 		vstr.32	s15, [r2, #4]
  75:modules/JY61P/JY61P.c ****             {
 145              		.loc 1 75 35 is_stmt 1 discriminator 3 view .LVU33
  75:modules/JY61P/JY61P.c ****             {
 146              		.loc 1 75 36 is_stmt 0 discriminator 3 view .LVU34
 147 00ae 0133     		adds	r3, r3, #1
 148              	.LVL9:
 149              	.L3:
  75:modules/JY61P/JY61P.c ****             {
 150              		.loc 1 75 28 is_stmt 1 discriminator 1 view .LVU35
  75:modules/JY61P/JY61P.c ****             {
 151              		.loc 1 75 13 is_stmt 0 discriminator 1 view .LVU36
 152 00b0 022B     		cmp	r3, #2
 153 00b2 E6DD     		ble	.L8
 154 00b4 AAE7     		b	.L1
 155              	.LVL10:
 156              	.L10:
  75:modules/JY61P/JY61P.c ****             {
 157              		.loc 1 75 13 discriminator 1 view .LVU37
 158              	.LBE4:
  59:modules/JY61P/JY61P.c ****     {
 159              		.loc 1 59 5 view .LVU38
 160 00b6 0023     		movs	r3, #0
 161 00b8 FAE7     		b	.L3
 162              	.L14:
 163 00ba 00BF     		.align	2
 164              	.L13:
 165 00bc 00000000 		.word	sReg
 166 00c0 00000038 		.word	939524096
ARM GAS  C:\Users\HUAWEI\AppData\Local\Temp\ccJfXVyU.s 			page 6


 167 00c4 00000000 		.word	.LANCHOR0
 168 00c8 0000FA44 		.word	1157234688
 169 00cc 00003443 		.word	1127481344
 170              		.cfi_endproc
 171              	.LFE141:
 173              		.section	.text.WITSerialDecode,"ax",%progbits
 174              		.align	1
 175              		.global	WITSerialDecode
 176              		.syntax unified
 177              		.thumb
 178              		.thumb_func
 180              	WITSerialDecode:
 181              	.LFB140:
  49:modules/JY61P/JY61P.c ****     for (int i = 0; i < 33; i++)
 182              		.loc 1 49 1 is_stmt 1 view -0
 183              		.cfi_startproc
 184              		@ args = 0, pretend = 0, frame = 0
 185              		@ frame_needed = 0, uses_anonymous_args = 0
 186 0000 10B5     		push	{r4, lr}
 187              	.LCFI0:
 188              		.cfi_def_cfa_offset 8
 189              		.cfi_offset 4, -8
 190              		.cfi_offset 14, -4
  50:modules/JY61P/JY61P.c ****   {
 191              		.loc 1 50 5 view .LVU40
 192              	.LBB5:
  50:modules/JY61P/JY61P.c ****   {
 193              		.loc 1 50 10 view .LVU41
 194              	.LVL11:
  50:modules/JY61P/JY61P.c ****   {
 195              		.loc 1 50 14 is_stmt 0 view .LVU42
 196 0002 0024     		movs	r4, #0
  50:modules/JY61P/JY61P.c ****   {
 197              		.loc 1 50 5 view .LVU43
 198 0004 05E0     		b	.L16
 199              	.LVL12:
 200              	.L17:
  53:modules/JY61P/JY61P.c ****   }
 201              		.loc 1 53 5 is_stmt 1 discriminator 3 view .LVU44
  53:modules/JY61P/JY61P.c ****   }
 202              		.loc 1 53 35 is_stmt 0 discriminator 3 view .LVU45
 203 0006 044B     		ldr	r3, .L19
 204 0008 1B68     		ldr	r3, [r3]
  53:modules/JY61P/JY61P.c ****   }
 205              		.loc 1 53 5 discriminator 3 view .LVU46
 206 000a 185D     		ldrb	r0, [r3, r4]	@ zero_extendqisi2
 207 000c FFF7FEFF 		bl	WitSerialDataIn
 208              	.LVL13:
  50:modules/JY61P/JY61P.c ****   {
 209              		.loc 1 50 29 is_stmt 1 discriminator 3 view .LVU47
  50:modules/JY61P/JY61P.c ****   {
 210              		.loc 1 50 30 is_stmt 0 discriminator 3 view .LVU48
 211 0010 0134     		adds	r4, r4, #1
 212              	.LVL14:
 213              	.L16:
  50:modules/JY61P/JY61P.c ****   {
 214              		.loc 1 50 21 is_stmt 1 discriminator 1 view .LVU49
ARM GAS  C:\Users\HUAWEI\AppData\Local\Temp\ccJfXVyU.s 			page 7


  50:modules/JY61P/JY61P.c ****   {
 215              		.loc 1 50 5 is_stmt 0 discriminator 1 view .LVU50
 216 0012 202C     		cmp	r4, #32
 217 0014 F7DD     		ble	.L17
 218              	.LBE5:
  55:modules/JY61P/JY61P.c **** 
 219              		.loc 1 55 1 view .LVU51
 220 0016 10BD     		pop	{r4, pc}
 221              	.LVL15:
 222              	.L20:
  55:modules/JY61P/JY61P.c **** 
 223              		.loc 1 55 1 view .LVU52
 224              		.align	2
 225              	.L19:
 226 0018 00000000 		.word	.LANCHOR0
 227              		.cfi_endproc
 228              	.LFE140:
 230              		.section	.text.JY61P_Init,"ax",%progbits
 231              		.align	1
 232              		.global	JY61P_Init
 233              		.syntax unified
 234              		.thumb
 235              		.thumb_func
 237              	JY61P_Init:
 238              	.LVL16:
 239              	.LFB138:
  19:modules/JY61P/JY61P.c ****     
 240              		.loc 1 19 1 is_stmt 1 view -0
 241              		.cfi_startproc
 242              		@ args = 0, pretend = 0, frame = 16
 243              		@ frame_needed = 0, uses_anonymous_args = 0
  19:modules/JY61P/JY61P.c ****     
 244              		.loc 1 19 1 is_stmt 0 view .LVU54
 245 0000 30B5     		push	{r4, r5, lr}
 246              	.LCFI1:
 247              		.cfi_def_cfa_offset 12
 248              		.cfi_offset 4, -12
 249              		.cfi_offset 5, -8
 250              		.cfi_offset 14, -4
 251 0002 85B0     		sub	sp, sp, #20
 252              	.LCFI2:
 253              		.cfi_def_cfa_offset 32
 254 0004 0546     		mov	r5, r0
  21:modules/JY61P/JY61P.c ****     conf.module_callback = WITSerialDecode;
 255              		.loc 1 21 5 is_stmt 1 view .LVU55
  22:modules/JY61P/JY61P.c ****     conf.usart_handle = &huart3; 
 256              		.loc 1 22 5 view .LVU56
  22:modules/JY61P/JY61P.c ****     conf.usart_handle = &huart3; 
 257              		.loc 1 22 26 is_stmt 0 view .LVU57
 258 0006 124B     		ldr	r3, .L23
 259 0008 0393     		str	r3, [sp, #12]
  23:modules/JY61P/JY61P.c ****     conf.recv_buff_size = 33; 
 260              		.loc 1 23 5 is_stmt 1 view .LVU58
  23:modules/JY61P/JY61P.c ****     conf.recv_buff_size = 33; 
 261              		.loc 1 23 23 is_stmt 0 view .LVU59
 262 000a 124B     		ldr	r3, .L23+4
 263 000c 0293     		str	r3, [sp, #8]
ARM GAS  C:\Users\HUAWEI\AppData\Local\Temp\ccJfXVyU.s 			page 8


  24:modules/JY61P/JY61P.c ****     JY61P_instance.usart_instance = USARTRegister(&conf);
 264              		.loc 1 24 5 is_stmt 1 view .LVU60
  24:modules/JY61P/JY61P.c ****     JY61P_instance.usart_instance = USARTRegister(&conf);
 265              		.loc 1 24 25 is_stmt 0 view .LVU61
 266 000e 2123     		movs	r3, #33
 267 0010 8DF80430 		strb	r3, [sp, #4]
  25:modules/JY61P/JY61P.c **** 
 268              		.loc 1 25 5 is_stmt 1 view .LVU62
  25:modules/JY61P/JY61P.c **** 
 269              		.loc 1 25 37 is_stmt 0 view .LVU63
 270 0014 01A8     		add	r0, sp, #4
 271              	.LVL17:
  25:modules/JY61P/JY61P.c **** 
 272              		.loc 1 25 37 view .LVU64
 273 0016 FFF7FEFF 		bl	USARTRegister
 274              	.LVL18:
  25:modules/JY61P/JY61P.c **** 
 275              		.loc 1 25 35 view .LVU65
 276 001a 0F4C     		ldr	r4, .L23+8
 277 001c 44F8040B 		str	r0, [r4], #4
  27:modules/JY61P/JY61P.c ****     WitSerialWriteRegister(USART_JY61P_SEND); // 注册传感器串口发送函数
 278              		.loc 1 27 5 is_stmt 1 view .LVU66
 279 0020 5021     		movs	r1, #80
 280 0022 0020     		movs	r0, #0
 281 0024 FFF7FEFF 		bl	WitInit
 282              	.LVL19:
  28:modules/JY61P/JY61P.c ****     WitDelayMsRegister(DWT_Delay_ms);// 注册传感器延时函数
 283              		.loc 1 28 5 view .LVU67
 284 0028 0C48     		ldr	r0, .L23+12
 285 002a FFF7FEFF 		bl	WitSerialWriteRegister
 286              	.LVL20:
  29:modules/JY61P/JY61P.c ****     WitRegisterCallBack(JY61P_DataUpdate);// 注册传感器数据更新函数
 287              		.loc 1 29 5 view .LVU68
 288 002e 0C48     		ldr	r0, .L23+16
 289 0030 FFF7FEFF 		bl	WitDelayMsRegister
 290              	.LVL21:
  30:modules/JY61P/JY61P.c ****     WitSetUartBaud(uart_baud);
 291              		.loc 1 30 5 view .LVU69
 292 0034 0B48     		ldr	r0, .L23+20
 293 0036 FFF7FEFF 		bl	WitRegisterCallBack
 294              	.LVL22:
  31:modules/JY61P/JY61P.c ****     WitStartAccCali();
 295              		.loc 1 31 5 view .LVU70
 296 003a 2846     		mov	r0, r5
 297 003c FFF7FEFF 		bl	WitSetUartBaud
 298              	.LVL23:
  32:modules/JY61P/JY61P.c ****     DWT_Delay_ms(100);
 299              		.loc 1 32 5 view .LVU71
 300 0040 FFF7FEFF 		bl	WitStartAccCali
 301              	.LVL24:
  33:modules/JY61P/JY61P.c ****     return &JY61P_instance.JY61P_data;
 302              		.loc 1 33 5 view .LVU72
 303 0044 6420     		movs	r0, #100
 304 0046 FFF7FEFF 		bl	DWT_Delay_ms
 305              	.LVL25:
  34:modules/JY61P/JY61P.c **** }
 306              		.loc 1 34 5 view .LVU73
ARM GAS  C:\Users\HUAWEI\AppData\Local\Temp\ccJfXVyU.s 			page 9


  35:modules/JY61P/JY61P.c **** 
 307              		.loc 1 35 1 is_stmt 0 view .LVU74
 308 004a 2046     		mov	r0, r4
 309 004c 05B0     		add	sp, sp, #20
 310              	.LCFI3:
 311              		.cfi_def_cfa_offset 12
 312              		@ sp needed
 313 004e 30BD     		pop	{r4, r5, pc}
 314              	.L24:
 315              		.align	2
 316              	.L23:
 317 0050 00000000 		.word	WITSerialDecode
 318 0054 00000000 		.word	huart3
 319 0058 00000000 		.word	.LANCHOR0
 320 005c 00000000 		.word	USART_JY61P_SEND
 321 0060 00000000 		.word	DWT_Delay_ms
 322 0064 00000000 		.word	JY61P_DataUpdate
 323              		.cfi_endproc
 324              	.LFE138:
 326              		.section	.text.INS_Init,"ax",%progbits
 327              		.align	1
 328              		.global	INS_Init
 329              		.syntax unified
 330              		.thumb
 331              		.thumb_func
 333              	INS_Init:
 334              	.LFB137:
  10:modules/JY61P/JY61P.c ****     DWT_Init(168);
 335              		.loc 1 10 1 is_stmt 1 view -0
 336              		.cfi_startproc
 337              		@ args = 0, pretend = 0, frame = 0
 338              		@ frame_needed = 0, uses_anonymous_args = 0
 339 0000 08B5     		push	{r3, lr}
 340              	.LCFI4:
 341              		.cfi_def_cfa_offset 8
 342              		.cfi_offset 3, -8
 343              		.cfi_offset 14, -4
  11:modules/JY61P/JY61P.c ****     JY61P_data = JY61P_Init(WIT_BAUD_115200);
 344              		.loc 1 11 5 view .LVU76
 345 0002 A820     		movs	r0, #168
 346 0004 FFF7FEFF 		bl	DWT_Init
 347              	.LVL26:
  12:modules/JY61P/JY61P.c ****     // WitRestartSensor();
 348              		.loc 1 12 5 view .LVU77
  12:modules/JY61P/JY61P.c ****     // WitRestartSensor();
 349              		.loc 1 12 18 is_stmt 0 view .LVU78
 350 0008 0620     		movs	r0, #6
 351 000a FFF7FEFF 		bl	JY61P_Init
 352              	.LVL27:
  12:modules/JY61P/JY61P.c ****     // WitRestartSensor();
 353              		.loc 1 12 16 view .LVU79
 354 000e 024B     		ldr	r3, .L27
 355 0010 1860     		str	r0, [r3]
  15:modules/JY61P/JY61P.c **** }
 356              		.loc 1 15 5 is_stmt 1 view .LVU80
  16:modules/JY61P/JY61P.c **** 
 357              		.loc 1 16 1 is_stmt 0 view .LVU81
ARM GAS  C:\Users\HUAWEI\AppData\Local\Temp\ccJfXVyU.s 			page 10


 358 0012 1846     		mov	r0, r3
 359 0014 08BD     		pop	{r3, pc}
 360              	.L28:
 361 0016 00BF     		.align	2
 362              	.L27:
 363 0018 00000000 		.word	.LANCHOR1
 364              		.cfi_endproc
 365              	.LFE137:
 367              		.section	.text.JY61P_ReadData,"ax",%progbits
 368              		.align	1
 369              		.global	JY61P_ReadData
 370              		.syntax unified
 371              		.thumb
 372              		.thumb_func
 374              	JY61P_ReadData:
 375              	.LFB139:
  38:modules/JY61P/JY61P.c ****     WitReadReg(AX, 3);
 376              		.loc 1 38 1 is_stmt 1 view -0
 377              		.cfi_startproc
 378              		@ args = 0, pretend = 0, frame = 0
 379              		@ frame_needed = 0, uses_anonymous_args = 0
 380 0000 08B5     		push	{r3, lr}
 381              	.LCFI5:
 382              		.cfi_def_cfa_offset 8
 383              		.cfi_offset 3, -8
 384              		.cfi_offset 14, -4
 385 0002 2DED028B 		vpush.64	{d8}
 386              	.LCFI6:
 387              		.cfi_def_cfa_offset 16
 388              		.cfi_offset 80, -16
 389              		.cfi_offset 81, -12
  39:modules/JY61P/JY61P.c ****     DWT_Delay(0.1);
 390              		.loc 1 39 5 view .LVU83
 391 0006 0321     		movs	r1, #3
 392 0008 3420     		movs	r0, #52
 393 000a FFF7FEFF 		bl	WitReadReg
 394              	.LVL28:
  40:modules/JY61P/JY61P.c ****     WitReadReg(GX, 3);
 395              		.loc 1 40 5 view .LVU84
 396 000e 9FED0E8A 		vldr.32	s16, .L31
 397 0012 B0EE480A 		vmov.f32	s0, s16
 398 0016 FFF7FEFF 		bl	DWT_Delay
 399              	.LVL29:
  41:modules/JY61P/JY61P.c ****     DWT_Delay(0.1);
 400              		.loc 1 41 5 view .LVU85
 401 001a 0321     		movs	r1, #3
 402 001c 3720     		movs	r0, #55
 403 001e FFF7FEFF 		bl	WitReadReg
 404              	.LVL30:
  42:modules/JY61P/JY61P.c ****     WitReadReg(HX, 3);
 405              		.loc 1 42 5 view .LVU86
 406 0022 B0EE480A 		vmov.f32	s0, s16
 407 0026 FFF7FEFF 		bl	DWT_Delay
 408              	.LVL31:
  43:modules/JY61P/JY61P.c ****     DWT_Delay(0.1);
 409              		.loc 1 43 5 view .LVU87
 410 002a 0321     		movs	r1, #3
ARM GAS  C:\Users\HUAWEI\AppData\Local\Temp\ccJfXVyU.s 			page 11


 411 002c 3A20     		movs	r0, #58
 412 002e FFF7FEFF 		bl	WitReadReg
 413              	.LVL32:
  44:modules/JY61P/JY61P.c ****     WitReadReg(Roll, 3);
 414              		.loc 1 44 5 view .LVU88
 415 0032 B0EE480A 		vmov.f32	s0, s16
 416 0036 FFF7FEFF 		bl	DWT_Delay
 417              	.LVL33:
  45:modules/JY61P/JY61P.c **** }
 418              		.loc 1 45 5 view .LVU89
 419 003a 0321     		movs	r1, #3
 420 003c 3D20     		movs	r0, #61
 421 003e FFF7FEFF 		bl	WitReadReg
 422              	.LVL34:
  46:modules/JY61P/JY61P.c **** 
 423              		.loc 1 46 1 is_stmt 0 view .LVU90
 424 0042 BDEC028B 		vldm	sp!, {d8}
 425              	.LCFI7:
 426              		.cfi_restore 80
 427              		.cfi_restore 81
 428              		.cfi_def_cfa_offset 8
 429 0046 08BD     		pop	{r3, pc}
 430              	.L32:
 431              		.align	2
 432              	.L31:
 433 0048 CDCCCC3D 		.word	1036831949
 434              		.cfi_endproc
 435              	.LFE139:
 437              		.section	.bss.JY61P_data,"aw",%nobits
 438              		.align	2
 439              		.set	.LANCHOR1,. + 0
 442              	JY61P_data:
 443 0000 00000000 		.space	4
 444              		.section	.bss.JY61P_instance,"aw",%nobits
 445              		.align	2
 446              		.set	.LANCHOR0,. + 0
 449              	JY61P_instance:
 450 0000 00000000 		.space	40
 450      00000000 
 450      00000000 
 450      00000000 
 450      00000000 
 451              		.text
 452              	.Letext0:
 453              		.file 2 "d:\\baidunetdiskdownload\\archive\\ec\\vscode_ozone\\gcc-arm-none-eabi-10.3-2021.10-win32
 454              		.file 3 "d:\\baidunetdiskdownload\\archive\\ec\\vscode_ozone\\gcc-arm-none-eabi-10.3-2021.10-win32
 455              		.file 4 "Drivers/CMSIS/Device/ST/STM32F4xx/Include/stm32f405xx.h"
 456              		.file 5 "Drivers/STM32F4xx_HAL_Driver/Inc/stm32f4xx_hal_def.h"
 457              		.file 6 "Drivers/STM32F4xx_HAL_Driver/Inc/stm32f4xx_hal_dma.h"
 458              		.file 7 "Drivers/STM32F4xx_HAL_Driver/Inc/stm32f4xx_hal_uart.h"
 459              		.file 8 "bsp/usart/bsp_usart.h"
 460              		.file 9 "Core/Inc/usart.h"
 461              		.file 10 "modules/JY61P/wit_c_sdk.h"
 462              		.file 11 "modules/JY61P/JY61P.h"
 463              		.file 12 "bsp/dwt/bsp_dwt.h"
ARM GAS  C:\Users\HUAWEI\AppData\Local\Temp\ccJfXVyU.s 			page 12

