ARM GAS  C:\Users\HUAWEI\AppData\Local\Temp\ccepTPHI.s 			page 1


   1              		.cpu cortex-m4
   2              		.arch armv7e-m
   3              		.fpu fpv4-sp-d16
   4              		.eabi_attribute 27, 1
   5              		.eabi_attribute 28, 1
   6              		.eabi_attribute 20, 1
   7              		.eabi_attribute 21, 1
   8              		.eabi_attribute 23, 3
   9              		.eabi_attribute 24, 1
  10              		.eabi_attribute 25, 1
  11              		.eabi_attribute 26, 1
  12              		.eabi_attribute 30, 1
  13              		.eabi_attribute 34, 1
  14              		.eabi_attribute 18, 4
  15              		.file	"tim.c"
  16              		.text
  17              	.Ltext0:
  18              		.cfi_sections	.debug_frame
  19              		.section	.text.MX_TIM1_Init,"ax",%progbits
  20              		.align	1
  21              		.global	MX_TIM1_Init
  22              		.syntax unified
  23              		.thumb
  24              		.thumb_func
  26              	MX_TIM1_Init:
  27              	.LFB134:
  28              		.file 1 "Core/Src/tim.c"
   1:Core/Src/tim.c **** /* USER CODE BEGIN Header */
   2:Core/Src/tim.c **** /**
   3:Core/Src/tim.c ****   ******************************************************************************
   4:Core/Src/tim.c ****   * @file    tim.c
   5:Core/Src/tim.c ****   * @brief   This file provides code for the configuration
   6:Core/Src/tim.c ****   *          of the TIM instances.
   7:Core/Src/tim.c ****   ******************************************************************************
   8:Core/Src/tim.c ****   * @attention
   9:Core/Src/tim.c ****   *
  10:Core/Src/tim.c ****   * Copyright (c) 2025 STMicroelectronics.
  11:Core/Src/tim.c ****   * All rights reserved.
  12:Core/Src/tim.c ****   *
  13:Core/Src/tim.c ****   * This software is licensed under terms that can be found in the LICENSE file
  14:Core/Src/tim.c ****   * in the root directory of this software component.
  15:Core/Src/tim.c ****   * If no LICENSE file comes with this software, it is provided AS-IS.
  16:Core/Src/tim.c ****   *
  17:Core/Src/tim.c ****   ******************************************************************************
  18:Core/Src/tim.c ****   */
  19:Core/Src/tim.c **** /* USER CODE END Header */
  20:Core/Src/tim.c **** /* Includes ------------------------------------------------------------------*/
  21:Core/Src/tim.c **** #include "tim.h"
  22:Core/Src/tim.c **** 
  23:Core/Src/tim.c **** /* USER CODE BEGIN 0 */
  24:Core/Src/tim.c **** 
  25:Core/Src/tim.c **** /* USER CODE END 0 */
  26:Core/Src/tim.c **** 
  27:Core/Src/tim.c **** TIM_HandleTypeDef htim1;
  28:Core/Src/tim.c **** 
  29:Core/Src/tim.c **** /* TIM1 init function */
  30:Core/Src/tim.c **** void MX_TIM1_Init(void)
ARM GAS  C:\Users\HUAWEI\AppData\Local\Temp\ccepTPHI.s 			page 2


  31:Core/Src/tim.c **** {
  29              		.loc 1 31 1 view -0
  30              		.cfi_startproc
  31              		@ args = 0, pretend = 0, frame = 24
  32              		@ frame_needed = 0, uses_anonymous_args = 0
  33 0000 00B5     		push	{lr}
  34              	.LCFI0:
  35              		.cfi_def_cfa_offset 4
  36              		.cfi_offset 14, -4
  37 0002 87B0     		sub	sp, sp, #28
  38              	.LCFI1:
  39              		.cfi_def_cfa_offset 32
  32:Core/Src/tim.c **** 
  33:Core/Src/tim.c ****   /* USER CODE BEGIN TIM1_Init 0 */
  34:Core/Src/tim.c **** 
  35:Core/Src/tim.c ****   /* USER CODE END TIM1_Init 0 */
  36:Core/Src/tim.c **** 
  37:Core/Src/tim.c ****   TIM_ClockConfigTypeDef sClockSourceConfig = {0};
  40              		.loc 1 37 3 view .LVU1
  41              		.loc 1 37 26 is_stmt 0 view .LVU2
  42 0004 0023     		movs	r3, #0
  43 0006 0293     		str	r3, [sp, #8]
  44 0008 0393     		str	r3, [sp, #12]
  45 000a 0493     		str	r3, [sp, #16]
  46 000c 0593     		str	r3, [sp, #20]
  38:Core/Src/tim.c ****   TIM_MasterConfigTypeDef sMasterConfig = {0};
  47              		.loc 1 38 3 is_stmt 1 view .LVU3
  48              		.loc 1 38 27 is_stmt 0 view .LVU4
  49 000e 0093     		str	r3, [sp]
  50 0010 0193     		str	r3, [sp, #4]
  39:Core/Src/tim.c **** 
  40:Core/Src/tim.c ****   /* USER CODE BEGIN TIM1_Init 1 */
  41:Core/Src/tim.c **** 
  42:Core/Src/tim.c ****   /* USER CODE END TIM1_Init 1 */
  43:Core/Src/tim.c ****   htim1.Instance = TIM1;
  51              		.loc 1 43 3 is_stmt 1 view .LVU5
  52              		.loc 1 43 18 is_stmt 0 view .LVU6
  53 0012 1548     		ldr	r0, .L9
  54 0014 154A     		ldr	r2, .L9+4
  55 0016 0260     		str	r2, [r0]
  44:Core/Src/tim.c ****   htim1.Init.Prescaler = 0;
  56              		.loc 1 44 3 is_stmt 1 view .LVU7
  57              		.loc 1 44 24 is_stmt 0 view .LVU8
  58 0018 4360     		str	r3, [r0, #4]
  45:Core/Src/tim.c ****   htim1.Init.CounterMode = TIM_COUNTERMODE_UP;
  59              		.loc 1 45 3 is_stmt 1 view .LVU9
  60              		.loc 1 45 26 is_stmt 0 view .LVU10
  61 001a 8360     		str	r3, [r0, #8]
  46:Core/Src/tim.c ****   htim1.Init.Period = 65535;
  62              		.loc 1 46 3 is_stmt 1 view .LVU11
  63              		.loc 1 46 21 is_stmt 0 view .LVU12
  64 001c 4FF6FF72 		movw	r2, #65535
  65 0020 C260     		str	r2, [r0, #12]
  47:Core/Src/tim.c ****   htim1.Init.ClockDivision = TIM_CLOCKDIVISION_DIV1;
  66              		.loc 1 47 3 is_stmt 1 view .LVU13
  67              		.loc 1 47 28 is_stmt 0 view .LVU14
  68 0022 0361     		str	r3, [r0, #16]
ARM GAS  C:\Users\HUAWEI\AppData\Local\Temp\ccepTPHI.s 			page 3


  48:Core/Src/tim.c ****   htim1.Init.RepetitionCounter = 0;
  69              		.loc 1 48 3 is_stmt 1 view .LVU15
  70              		.loc 1 48 32 is_stmt 0 view .LVU16
  71 0024 4361     		str	r3, [r0, #20]
  49:Core/Src/tim.c ****   htim1.Init.AutoReloadPreload = TIM_AUTORELOAD_PRELOAD_DISABLE;
  72              		.loc 1 49 3 is_stmt 1 view .LVU17
  73              		.loc 1 49 32 is_stmt 0 view .LVU18
  74 0026 8361     		str	r3, [r0, #24]
  50:Core/Src/tim.c ****   if (HAL_TIM_Base_Init(&htim1) != HAL_OK)
  75              		.loc 1 50 3 is_stmt 1 view .LVU19
  76              		.loc 1 50 7 is_stmt 0 view .LVU20
  77 0028 FFF7FEFF 		bl	HAL_TIM_Base_Init
  78              	.LVL0:
  79              		.loc 1 50 6 view .LVU21
  80 002c 90B9     		cbnz	r0, .L6
  81              	.L2:
  51:Core/Src/tim.c ****   {
  52:Core/Src/tim.c ****     Error_Handler();
  53:Core/Src/tim.c ****   }
  54:Core/Src/tim.c ****   sClockSourceConfig.ClockSource = TIM_CLOCKSOURCE_INTERNAL;
  82              		.loc 1 54 3 is_stmt 1 view .LVU22
  83              		.loc 1 54 34 is_stmt 0 view .LVU23
  84 002e 4FF48053 		mov	r3, #4096
  85 0032 0293     		str	r3, [sp, #8]
  55:Core/Src/tim.c ****   if (HAL_TIM_ConfigClockSource(&htim1, &sClockSourceConfig) != HAL_OK)
  86              		.loc 1 55 3 is_stmt 1 view .LVU24
  87              		.loc 1 55 7 is_stmt 0 view .LVU25
  88 0034 02A9     		add	r1, sp, #8
  89 0036 0C48     		ldr	r0, .L9
  90 0038 FFF7FEFF 		bl	HAL_TIM_ConfigClockSource
  91              	.LVL1:
  92              		.loc 1 55 6 view .LVU26
  93 003c 68B9     		cbnz	r0, .L7
  94              	.L3:
  56:Core/Src/tim.c ****   {
  57:Core/Src/tim.c ****     Error_Handler();
  58:Core/Src/tim.c ****   }
  59:Core/Src/tim.c ****   sMasterConfig.MasterOutputTrigger = TIM_TRGO_RESET;
  95              		.loc 1 59 3 is_stmt 1 view .LVU27
  96              		.loc 1 59 37 is_stmt 0 view .LVU28
  97 003e 0023     		movs	r3, #0
  98 0040 0093     		str	r3, [sp]
  60:Core/Src/tim.c ****   sMasterConfig.MasterSlaveMode = TIM_MASTERSLAVEMODE_DISABLE;
  99              		.loc 1 60 3 is_stmt 1 view .LVU29
 100              		.loc 1 60 33 is_stmt 0 view .LVU30
 101 0042 0193     		str	r3, [sp, #4]
  61:Core/Src/tim.c ****   if (HAL_TIMEx_MasterConfigSynchronization(&htim1, &sMasterConfig) != HAL_OK)
 102              		.loc 1 61 3 is_stmt 1 view .LVU31
 103              		.loc 1 61 7 is_stmt 0 view .LVU32
 104 0044 6946     		mov	r1, sp
 105 0046 0848     		ldr	r0, .L9
 106 0048 FFF7FEFF 		bl	HAL_TIMEx_MasterConfigSynchronization
 107              	.LVL2:
 108              		.loc 1 61 6 view .LVU33
 109 004c 40B9     		cbnz	r0, .L8
 110              	.L1:
  62:Core/Src/tim.c ****   {
ARM GAS  C:\Users\HUAWEI\AppData\Local\Temp\ccepTPHI.s 			page 4


  63:Core/Src/tim.c ****     Error_Handler();
  64:Core/Src/tim.c ****   }
  65:Core/Src/tim.c ****   /* USER CODE BEGIN TIM1_Init 2 */
  66:Core/Src/tim.c **** 
  67:Core/Src/tim.c ****   /* USER CODE END TIM1_Init 2 */
  68:Core/Src/tim.c **** 
  69:Core/Src/tim.c **** }
 111              		.loc 1 69 1 view .LVU34
 112 004e 07B0     		add	sp, sp, #28
 113              	.LCFI2:
 114              		.cfi_remember_state
 115              		.cfi_def_cfa_offset 4
 116              		@ sp needed
 117 0050 5DF804FB 		ldr	pc, [sp], #4
 118              	.L6:
 119              	.LCFI3:
 120              		.cfi_restore_state
  52:Core/Src/tim.c ****   }
 121              		.loc 1 52 5 is_stmt 1 view .LVU35
 122 0054 FFF7FEFF 		bl	Error_Handler
 123              	.LVL3:
 124 0058 E9E7     		b	.L2
 125              	.L7:
  57:Core/Src/tim.c ****   }
 126              		.loc 1 57 5 view .LVU36
 127 005a FFF7FEFF 		bl	Error_Handler
 128              	.LVL4:
 129 005e EEE7     		b	.L3
 130              	.L8:
  63:Core/Src/tim.c ****   }
 131              		.loc 1 63 5 view .LVU37
 132 0060 FFF7FEFF 		bl	Error_Handler
 133              	.LVL5:
 134              		.loc 1 69 1 is_stmt 0 view .LVU38
 135 0064 F3E7     		b	.L1
 136              	.L10:
 137 0066 00BF     		.align	2
 138              	.L9:
 139 0068 00000000 		.word	.LANCHOR0
 140 006c 00000140 		.word	1073807360
 141              		.cfi_endproc
 142              	.LFE134:
 144              		.section	.text.HAL_TIM_Base_MspInit,"ax",%progbits
 145              		.align	1
 146              		.global	HAL_TIM_Base_MspInit
 147              		.syntax unified
 148              		.thumb
 149              		.thumb_func
 151              	HAL_TIM_Base_MspInit:
 152              	.LVL6:
 153              	.LFB135:
  70:Core/Src/tim.c **** 
  71:Core/Src/tim.c **** void HAL_TIM_Base_MspInit(TIM_HandleTypeDef* tim_baseHandle)
  72:Core/Src/tim.c **** {
 154              		.loc 1 72 1 is_stmt 1 view -0
 155              		.cfi_startproc
 156              		@ args = 0, pretend = 0, frame = 8
ARM GAS  C:\Users\HUAWEI\AppData\Local\Temp\ccepTPHI.s 			page 5


 157              		@ frame_needed = 0, uses_anonymous_args = 0
 158              		@ link register save eliminated.
  73:Core/Src/tim.c **** 
  74:Core/Src/tim.c ****   if(tim_baseHandle->Instance==TIM1)
 159              		.loc 1 74 3 view .LVU40
 160              		.loc 1 74 20 is_stmt 0 view .LVU41
 161 0000 0268     		ldr	r2, [r0]
 162              		.loc 1 74 5 view .LVU42
 163 0002 094B     		ldr	r3, .L18
 164 0004 9A42     		cmp	r2, r3
 165 0006 00D0     		beq	.L17
 166 0008 7047     		bx	lr
 167              	.L17:
  72:Core/Src/tim.c **** 
 168              		.loc 1 72 1 view .LVU43
 169 000a 82B0     		sub	sp, sp, #8
 170              	.LCFI4:
 171              		.cfi_def_cfa_offset 8
  75:Core/Src/tim.c ****   {
  76:Core/Src/tim.c ****   /* USER CODE BEGIN TIM1_MspInit 0 */
  77:Core/Src/tim.c **** 
  78:Core/Src/tim.c ****   /* USER CODE END TIM1_MspInit 0 */
  79:Core/Src/tim.c ****     /* TIM1 clock enable */
  80:Core/Src/tim.c ****     __HAL_RCC_TIM1_CLK_ENABLE();
 172              		.loc 1 80 5 is_stmt 1 view .LVU44
 173              	.LBB2:
 174              		.loc 1 80 5 view .LVU45
 175 000c 0023     		movs	r3, #0
 176 000e 0193     		str	r3, [sp, #4]
 177              		.loc 1 80 5 view .LVU46
 178 0010 064B     		ldr	r3, .L18+4
 179 0012 5A6C     		ldr	r2, [r3, #68]
 180 0014 42F00102 		orr	r2, r2, #1
 181 0018 5A64     		str	r2, [r3, #68]
 182              		.loc 1 80 5 view .LVU47
 183 001a 5B6C     		ldr	r3, [r3, #68]
 184 001c 03F00103 		and	r3, r3, #1
 185 0020 0193     		str	r3, [sp, #4]
 186              		.loc 1 80 5 view .LVU48
 187 0022 019B     		ldr	r3, [sp, #4]
 188              	.LBE2:
 189              		.loc 1 80 5 view .LVU49
  81:Core/Src/tim.c ****   /* USER CODE BEGIN TIM1_MspInit 1 */
  82:Core/Src/tim.c **** 
  83:Core/Src/tim.c ****   /* USER CODE END TIM1_MspInit 1 */
  84:Core/Src/tim.c ****   }
  85:Core/Src/tim.c **** }
 190              		.loc 1 85 1 is_stmt 0 view .LVU50
 191 0024 02B0     		add	sp, sp, #8
 192              	.LCFI5:
 193              		.cfi_def_cfa_offset 0
 194              		@ sp needed
 195 0026 7047     		bx	lr
 196              	.L19:
 197              		.align	2
 198              	.L18:
 199 0028 00000140 		.word	1073807360
ARM GAS  C:\Users\HUAWEI\AppData\Local\Temp\ccepTPHI.s 			page 6


 200 002c 00380240 		.word	1073887232
 201              		.cfi_endproc
 202              	.LFE135:
 204              		.section	.text.HAL_TIM_Base_MspDeInit,"ax",%progbits
 205              		.align	1
 206              		.global	HAL_TIM_Base_MspDeInit
 207              		.syntax unified
 208              		.thumb
 209              		.thumb_func
 211              	HAL_TIM_Base_MspDeInit:
 212              	.LVL7:
 213              	.LFB136:
  86:Core/Src/tim.c **** 
  87:Core/Src/tim.c **** void HAL_TIM_Base_MspDeInit(TIM_HandleTypeDef* tim_baseHandle)
  88:Core/Src/tim.c **** {
 214              		.loc 1 88 1 is_stmt 1 view -0
 215              		.cfi_startproc
 216              		@ args = 0, pretend = 0, frame = 0
 217              		@ frame_needed = 0, uses_anonymous_args = 0
 218              		@ link register save eliminated.
  89:Core/Src/tim.c **** 
  90:Core/Src/tim.c ****   if(tim_baseHandle->Instance==TIM1)
 219              		.loc 1 90 3 view .LVU52
 220              		.loc 1 90 20 is_stmt 0 view .LVU53
 221 0000 0268     		ldr	r2, [r0]
 222              		.loc 1 90 5 view .LVU54
 223 0002 054B     		ldr	r3, .L23
 224 0004 9A42     		cmp	r2, r3
 225 0006 00D0     		beq	.L22
 226              	.L20:
  91:Core/Src/tim.c ****   {
  92:Core/Src/tim.c ****   /* USER CODE BEGIN TIM1_MspDeInit 0 */
  93:Core/Src/tim.c **** 
  94:Core/Src/tim.c ****   /* USER CODE END TIM1_MspDeInit 0 */
  95:Core/Src/tim.c ****     /* Peripheral clock disable */
  96:Core/Src/tim.c ****     __HAL_RCC_TIM1_CLK_DISABLE();
  97:Core/Src/tim.c ****   /* USER CODE BEGIN TIM1_MspDeInit 1 */
  98:Core/Src/tim.c **** 
  99:Core/Src/tim.c ****   /* USER CODE END TIM1_MspDeInit 1 */
 100:Core/Src/tim.c ****   }
 101:Core/Src/tim.c **** }
 227              		.loc 1 101 1 view .LVU55
 228 0008 7047     		bx	lr
 229              	.L22:
  96:Core/Src/tim.c ****   /* USER CODE BEGIN TIM1_MspDeInit 1 */
 230              		.loc 1 96 5 is_stmt 1 view .LVU56
 231 000a 044A     		ldr	r2, .L23+4
 232 000c 536C     		ldr	r3, [r2, #68]
 233 000e 23F00103 		bic	r3, r3, #1
 234 0012 5364     		str	r3, [r2, #68]
 235              		.loc 1 101 1 is_stmt 0 view .LVU57
 236 0014 F8E7     		b	.L20
 237              	.L24:
 238 0016 00BF     		.align	2
 239              	.L23:
 240 0018 00000140 		.word	1073807360
 241 001c 00380240 		.word	1073887232
ARM GAS  C:\Users\HUAWEI\AppData\Local\Temp\ccepTPHI.s 			page 7


 242              		.cfi_endproc
 243              	.LFE136:
 245              		.global	htim1
 246              		.section	.bss.htim1,"aw",%nobits
 247              		.align	2
 248              		.set	.LANCHOR0,. + 0
 251              	htim1:
 252 0000 00000000 		.space	72
 252      00000000 
 252      00000000 
 252      00000000 
 252      00000000 
 253              		.text
 254              	.Letext0:
 255              		.file 2 "D:\\STM_CUBE_IDE\\STM32CubeIDE_1.14.0\\STM32CubeIDE\\plugins\\com.st.stm32cube.ide.mcu.ex
 256              		.file 3 "D:\\STM_CUBE_IDE\\STM32CubeIDE_1.14.0\\STM32CubeIDE\\plugins\\com.st.stm32cube.ide.mcu.ex
 257              		.file 4 "Drivers/CMSIS/Device/ST/STM32F4xx/Include/stm32f405xx.h"
 258              		.file 5 "Drivers/STM32F4xx_HAL_Driver/Inc/stm32f4xx_hal_def.h"
 259              		.file 6 "Drivers/STM32F4xx_HAL_Driver/Inc/stm32f4xx_hal_dma.h"
 260              		.file 7 "Drivers/STM32F4xx_HAL_Driver/Inc/stm32f4xx_hal_tim.h"
 261              		.file 8 "Drivers/STM32F4xx_HAL_Driver/Inc/stm32f4xx_hal_tim_ex.h"
 262              		.file 9 "Core/Inc/tim.h"
 263              		.file 10 "Core/Inc/main.h"
ARM GAS  C:\Users\HUAWEI\AppData\Local\Temp\ccepTPHI.s 			page 8

