ARM GAS  C:\Users\HUAWEI\AppData\Local\Temp\ccFG6VtR.s 			page 1


   1              		.cpu cortex-m4
   2              		.arch armv7e-m
   3              		.fpu fpv4-sp-d16
   4              		.eabi_attribute 27, 1
   5              		.eabi_attribute 28, 1
   6              		.eabi_attribute 20, 1
   7              		.eabi_attribute 21, 1
   8              		.eabi_attribute 23, 3
   9              		.eabi_attribute 24, 1
  10              		.eabi_attribute 25, 1
  11              		.eabi_attribute 26, 1
  12              		.eabi_attribute 30, 1
  13              		.eabi_attribute 34, 1
  14              		.eabi_attribute 18, 4
  15              		.file	"usart.c"
  16              		.text
  17              	.Ltext0:
  18              		.cfi_sections	.debug_frame
  19              		.section	.text.MX_USART1_UART_Init,"ax",%progbits
  20              		.align	1
  21              		.global	MX_USART1_UART_Init
  22              		.syntax unified
  23              		.thumb
  24              		.thumb_func
  26              	MX_USART1_UART_Init:
  27              	.LFB134:
  28              		.file 1 "Core/Src/usart.c"
   1:Core/Src/usart.c **** /* USER CODE BEGIN Header */
   2:Core/Src/usart.c **** /**
   3:Core/Src/usart.c ****   ******************************************************************************
   4:Core/Src/usart.c ****   * @file    usart.c
   5:Core/Src/usart.c ****   * @brief   This file provides code for the configuration
   6:Core/Src/usart.c ****   *          of the USART instances.
   7:Core/Src/usart.c ****   ******************************************************************************
   8:Core/Src/usart.c ****   * @attention
   9:Core/Src/usart.c ****   *
  10:Core/Src/usart.c ****   * Copyright (c) 2025 STMicroelectronics.
  11:Core/Src/usart.c ****   * All rights reserved.
  12:Core/Src/usart.c ****   *
  13:Core/Src/usart.c ****   * This software is licensed under terms that can be found in the LICENSE file
  14:Core/Src/usart.c ****   * in the root directory of this software component.
  15:Core/Src/usart.c ****   * If no LICENSE file comes with this software, it is provided AS-IS.
  16:Core/Src/usart.c ****   *
  17:Core/Src/usart.c ****   ******************************************************************************
  18:Core/Src/usart.c ****   */
  19:Core/Src/usart.c **** /* USER CODE END Header */
  20:Core/Src/usart.c **** /* Includes ------------------------------------------------------------------*/
  21:Core/Src/usart.c **** #include "usart.h"
  22:Core/Src/usart.c **** 
  23:Core/Src/usart.c **** /* USER CODE BEGIN 0 */
  24:Core/Src/usart.c **** 
  25:Core/Src/usart.c **** /* USER CODE END 0 */
  26:Core/Src/usart.c **** 
  27:Core/Src/usart.c **** UART_HandleTypeDef huart1;
  28:Core/Src/usart.c **** UART_HandleTypeDef huart3;
  29:Core/Src/usart.c **** DMA_HandleTypeDef hdma_usart3_rx;
  30:Core/Src/usart.c **** DMA_HandleTypeDef hdma_usart3_tx;
ARM GAS  C:\Users\HUAWEI\AppData\Local\Temp\ccFG6VtR.s 			page 2


  31:Core/Src/usart.c **** 
  32:Core/Src/usart.c **** /* USART1 init function */
  33:Core/Src/usart.c **** 
  34:Core/Src/usart.c **** void MX_USART1_UART_Init(void)
  35:Core/Src/usart.c **** {
  29              		.loc 1 35 1 view -0
  30              		.cfi_startproc
  31              		@ args = 0, pretend = 0, frame = 0
  32              		@ frame_needed = 0, uses_anonymous_args = 0
  33 0000 08B5     		push	{r3, lr}
  34              	.LCFI0:
  35              		.cfi_def_cfa_offset 8
  36              		.cfi_offset 3, -8
  37              		.cfi_offset 14, -4
  36:Core/Src/usart.c **** 
  37:Core/Src/usart.c ****   /* USER CODE BEGIN USART1_Init 0 */
  38:Core/Src/usart.c **** 
  39:Core/Src/usart.c ****   /* USER CODE END USART1_Init 0 */
  40:Core/Src/usart.c **** 
  41:Core/Src/usart.c ****   /* USER CODE BEGIN USART1_Init 1 */
  42:Core/Src/usart.c **** 
  43:Core/Src/usart.c ****   /* USER CODE END USART1_Init 1 */
  44:Core/Src/usart.c ****   huart1.Instance = USART1;
  38              		.loc 1 44 3 view .LVU1
  39              		.loc 1 44 19 is_stmt 0 view .LVU2
  40 0002 0A48     		ldr	r0, .L5
  41 0004 0A4B     		ldr	r3, .L5+4
  42 0006 0360     		str	r3, [r0]
  45:Core/Src/usart.c ****   huart1.Init.BaudRate = 9600;
  43              		.loc 1 45 3 is_stmt 1 view .LVU3
  44              		.loc 1 45 24 is_stmt 0 view .LVU4
  45 0008 4FF41653 		mov	r3, #9600
  46 000c 4360     		str	r3, [r0, #4]
  46:Core/Src/usart.c ****   huart1.Init.WordLength = UART_WORDLENGTH_8B;
  47              		.loc 1 46 3 is_stmt 1 view .LVU5
  48              		.loc 1 46 26 is_stmt 0 view .LVU6
  49 000e 0023     		movs	r3, #0
  50 0010 8360     		str	r3, [r0, #8]
  47:Core/Src/usart.c ****   huart1.Init.StopBits = UART_STOPBITS_1;
  51              		.loc 1 47 3 is_stmt 1 view .LVU7
  52              		.loc 1 47 24 is_stmt 0 view .LVU8
  53 0012 C360     		str	r3, [r0, #12]
  48:Core/Src/usart.c ****   huart1.Init.Parity = UART_PARITY_NONE;
  54              		.loc 1 48 3 is_stmt 1 view .LVU9
  55              		.loc 1 48 22 is_stmt 0 view .LVU10
  56 0014 0361     		str	r3, [r0, #16]
  49:Core/Src/usart.c ****   huart1.Init.Mode = UART_MODE_TX_RX;
  57              		.loc 1 49 3 is_stmt 1 view .LVU11
  58              		.loc 1 49 20 is_stmt 0 view .LVU12
  59 0016 0C22     		movs	r2, #12
  60 0018 4261     		str	r2, [r0, #20]
  50:Core/Src/usart.c ****   huart1.Init.HwFlowCtl = UART_HWCONTROL_NONE;
  61              		.loc 1 50 3 is_stmt 1 view .LVU13
  62              		.loc 1 50 25 is_stmt 0 view .LVU14
  63 001a 8361     		str	r3, [r0, #24]
  51:Core/Src/usart.c ****   huart1.Init.OverSampling = UART_OVERSAMPLING_16;
  64              		.loc 1 51 3 is_stmt 1 view .LVU15
ARM GAS  C:\Users\HUAWEI\AppData\Local\Temp\ccFG6VtR.s 			page 3


  65              		.loc 1 51 28 is_stmt 0 view .LVU16
  66 001c C361     		str	r3, [r0, #28]
  52:Core/Src/usart.c ****   if (HAL_UART_Init(&huart1) != HAL_OK)
  67              		.loc 1 52 3 is_stmt 1 view .LVU17
  68              		.loc 1 52 7 is_stmt 0 view .LVU18
  69 001e FFF7FEFF 		bl	HAL_UART_Init
  70              	.LVL0:
  71              		.loc 1 52 6 view .LVU19
  72 0022 00B9     		cbnz	r0, .L4
  73              	.L1:
  53:Core/Src/usart.c ****   {
  54:Core/Src/usart.c ****     Error_Handler();
  55:Core/Src/usart.c ****   }
  56:Core/Src/usart.c ****   /* USER CODE BEGIN USART1_Init 2 */
  57:Core/Src/usart.c **** 
  58:Core/Src/usart.c ****   /* USER CODE END USART1_Init 2 */
  59:Core/Src/usart.c **** 
  60:Core/Src/usart.c **** }
  74              		.loc 1 60 1 view .LVU20
  75 0024 08BD     		pop	{r3, pc}
  76              	.L4:
  54:Core/Src/usart.c ****   }
  77              		.loc 1 54 5 is_stmt 1 view .LVU21
  78 0026 FFF7FEFF 		bl	Error_Handler
  79              	.LVL1:
  80              		.loc 1 60 1 is_stmt 0 view .LVU22
  81 002a FBE7     		b	.L1
  82              	.L6:
  83              		.align	2
  84              	.L5:
  85 002c 00000000 		.word	.LANCHOR0
  86 0030 00100140 		.word	1073811456
  87              		.cfi_endproc
  88              	.LFE134:
  90              		.section	.text.MX_USART3_UART_Init,"ax",%progbits
  91              		.align	1
  92              		.global	MX_USART3_UART_Init
  93              		.syntax unified
  94              		.thumb
  95              		.thumb_func
  97              	MX_USART3_UART_Init:
  98              	.LFB135:
  61:Core/Src/usart.c **** /* USART3 init function */
  62:Core/Src/usart.c **** 
  63:Core/Src/usart.c **** void MX_USART3_UART_Init(void)
  64:Core/Src/usart.c **** {
  99              		.loc 1 64 1 is_stmt 1 view -0
 100              		.cfi_startproc
 101              		@ args = 0, pretend = 0, frame = 0
 102              		@ frame_needed = 0, uses_anonymous_args = 0
 103 0000 08B5     		push	{r3, lr}
 104              	.LCFI1:
 105              		.cfi_def_cfa_offset 8
 106              		.cfi_offset 3, -8
 107              		.cfi_offset 14, -4
  65:Core/Src/usart.c **** 
  66:Core/Src/usart.c ****   /* USER CODE BEGIN USART3_Init 0 */
ARM GAS  C:\Users\HUAWEI\AppData\Local\Temp\ccFG6VtR.s 			page 4


  67:Core/Src/usart.c **** 
  68:Core/Src/usart.c ****   /* USER CODE END USART3_Init 0 */
  69:Core/Src/usart.c **** 
  70:Core/Src/usart.c ****   /* USER CODE BEGIN USART3_Init 1 */
  71:Core/Src/usart.c **** 
  72:Core/Src/usart.c ****   /* USER CODE END USART3_Init 1 */
  73:Core/Src/usart.c ****   huart3.Instance = USART3;
 108              		.loc 1 73 3 view .LVU24
 109              		.loc 1 73 19 is_stmt 0 view .LVU25
 110 0002 0A48     		ldr	r0, .L11
 111 0004 0A4B     		ldr	r3, .L11+4
 112 0006 0360     		str	r3, [r0]
  74:Core/Src/usart.c ****   huart3.Init.BaudRate = 9600;
 113              		.loc 1 74 3 is_stmt 1 view .LVU26
 114              		.loc 1 74 24 is_stmt 0 view .LVU27
 115 0008 4FF41653 		mov	r3, #9600
 116 000c 4360     		str	r3, [r0, #4]
  75:Core/Src/usart.c ****   huart3.Init.WordLength = UART_WORDLENGTH_8B;
 117              		.loc 1 75 3 is_stmt 1 view .LVU28
 118              		.loc 1 75 26 is_stmt 0 view .LVU29
 119 000e 0023     		movs	r3, #0
 120 0010 8360     		str	r3, [r0, #8]
  76:Core/Src/usart.c ****   huart3.Init.StopBits = UART_STOPBITS_1;
 121              		.loc 1 76 3 is_stmt 1 view .LVU30
 122              		.loc 1 76 24 is_stmt 0 view .LVU31
 123 0012 C360     		str	r3, [r0, #12]
  77:Core/Src/usart.c ****   huart3.Init.Parity = UART_PARITY_NONE;
 124              		.loc 1 77 3 is_stmt 1 view .LVU32
 125              		.loc 1 77 22 is_stmt 0 view .LVU33
 126 0014 0361     		str	r3, [r0, #16]
  78:Core/Src/usart.c ****   huart3.Init.Mode = UART_MODE_TX_RX;
 127              		.loc 1 78 3 is_stmt 1 view .LVU34
 128              		.loc 1 78 20 is_stmt 0 view .LVU35
 129 0016 0C22     		movs	r2, #12
 130 0018 4261     		str	r2, [r0, #20]
  79:Core/Src/usart.c ****   huart3.Init.HwFlowCtl = UART_HWCONTROL_NONE;
 131              		.loc 1 79 3 is_stmt 1 view .LVU36
 132              		.loc 1 79 25 is_stmt 0 view .LVU37
 133 001a 8361     		str	r3, [r0, #24]
  80:Core/Src/usart.c ****   huart3.Init.OverSampling = UART_OVERSAMPLING_16;
 134              		.loc 1 80 3 is_stmt 1 view .LVU38
 135              		.loc 1 80 28 is_stmt 0 view .LVU39
 136 001c C361     		str	r3, [r0, #28]
  81:Core/Src/usart.c ****   if (HAL_UART_Init(&huart3) != HAL_OK)
 137              		.loc 1 81 3 is_stmt 1 view .LVU40
 138              		.loc 1 81 7 is_stmt 0 view .LVU41
 139 001e FFF7FEFF 		bl	HAL_UART_Init
 140              	.LVL2:
 141              		.loc 1 81 6 view .LVU42
 142 0022 00B9     		cbnz	r0, .L10
 143              	.L7:
  82:Core/Src/usart.c ****   {
  83:Core/Src/usart.c ****     Error_Handler();
  84:Core/Src/usart.c ****   }
  85:Core/Src/usart.c ****   /* USER CODE BEGIN USART3_Init 2 */
  86:Core/Src/usart.c **** 
  87:Core/Src/usart.c ****   /* USER CODE END USART3_Init 2 */
ARM GAS  C:\Users\HUAWEI\AppData\Local\Temp\ccFG6VtR.s 			page 5


  88:Core/Src/usart.c **** 
  89:Core/Src/usart.c **** }
 144              		.loc 1 89 1 view .LVU43
 145 0024 08BD     		pop	{r3, pc}
 146              	.L10:
  83:Core/Src/usart.c ****   }
 147              		.loc 1 83 5 is_stmt 1 view .LVU44
 148 0026 FFF7FEFF 		bl	Error_Handler
 149              	.LVL3:
 150              		.loc 1 89 1 is_stmt 0 view .LVU45
 151 002a FBE7     		b	.L7
 152              	.L12:
 153              		.align	2
 154              	.L11:
 155 002c 00000000 		.word	.LANCHOR1
 156 0030 00480040 		.word	1073760256
 157              		.cfi_endproc
 158              	.LFE135:
 160              		.section	.text.HAL_UART_MspInit,"ax",%progbits
 161              		.align	1
 162              		.global	HAL_UART_MspInit
 163              		.syntax unified
 164              		.thumb
 165              		.thumb_func
 167              	HAL_UART_MspInit:
 168              	.LVL4:
 169              	.LFB136:
  90:Core/Src/usart.c **** 
  91:Core/Src/usart.c **** void HAL_UART_MspInit(UART_HandleTypeDef* uartHandle)
  92:Core/Src/usart.c **** {
 170              		.loc 1 92 1 is_stmt 1 view -0
 171              		.cfi_startproc
 172              		@ args = 0, pretend = 0, frame = 40
 173              		@ frame_needed = 0, uses_anonymous_args = 0
 174              		.loc 1 92 1 is_stmt 0 view .LVU47
 175 0000 30B5     		push	{r4, r5, lr}
 176              	.LCFI2:
 177              		.cfi_def_cfa_offset 12
 178              		.cfi_offset 4, -12
 179              		.cfi_offset 5, -8
 180              		.cfi_offset 14, -4
 181 0002 8BB0     		sub	sp, sp, #44
 182              	.LCFI3:
 183              		.cfi_def_cfa_offset 56
  93:Core/Src/usart.c **** 
  94:Core/Src/usart.c ****   GPIO_InitTypeDef GPIO_InitStruct = {0};
 184              		.loc 1 94 3 is_stmt 1 view .LVU48
 185              		.loc 1 94 20 is_stmt 0 view .LVU49
 186 0004 0023     		movs	r3, #0
 187 0006 0593     		str	r3, [sp, #20]
 188 0008 0693     		str	r3, [sp, #24]
 189 000a 0793     		str	r3, [sp, #28]
 190 000c 0893     		str	r3, [sp, #32]
 191 000e 0993     		str	r3, [sp, #36]
  95:Core/Src/usart.c ****   if(uartHandle->Instance==USART1)
 192              		.loc 1 95 3 is_stmt 1 view .LVU50
 193              		.loc 1 95 16 is_stmt 0 view .LVU51
ARM GAS  C:\Users\HUAWEI\AppData\Local\Temp\ccFG6VtR.s 			page 6


 194 0010 0368     		ldr	r3, [r0]
 195              		.loc 1 95 5 view .LVU52
 196 0012 4A4A     		ldr	r2, .L23
 197 0014 9342     		cmp	r3, r2
 198 0016 05D0     		beq	.L19
 199 0018 0446     		mov	r4, r0
  96:Core/Src/usart.c ****   {
  97:Core/Src/usart.c ****   /* USER CODE BEGIN USART1_MspInit 0 */
  98:Core/Src/usart.c **** 
  99:Core/Src/usart.c ****   /* USER CODE END USART1_MspInit 0 */
 100:Core/Src/usart.c ****     /* USART1 clock enable */
 101:Core/Src/usart.c ****     __HAL_RCC_USART1_CLK_ENABLE();
 102:Core/Src/usart.c **** 
 103:Core/Src/usart.c ****     __HAL_RCC_GPIOB_CLK_ENABLE();
 104:Core/Src/usart.c ****     /**USART1 GPIO Configuration
 105:Core/Src/usart.c ****     PB6     ------> USART1_TX
 106:Core/Src/usart.c ****     PB7     ------> USART1_RX
 107:Core/Src/usart.c ****     */
 108:Core/Src/usart.c ****     GPIO_InitStruct.Pin = GPIO_PIN_6|GPIO_PIN_7;
 109:Core/Src/usart.c ****     GPIO_InitStruct.Mode = GPIO_MODE_AF_PP;
 110:Core/Src/usart.c ****     GPIO_InitStruct.Pull = GPIO_NOPULL;
 111:Core/Src/usart.c ****     GPIO_InitStruct.Speed = GPIO_SPEED_FREQ_VERY_HIGH;
 112:Core/Src/usart.c ****     GPIO_InitStruct.Alternate = GPIO_AF7_USART1;
 113:Core/Src/usart.c ****     HAL_GPIO_Init(GPIOB, &GPIO_InitStruct);
 114:Core/Src/usart.c **** 
 115:Core/Src/usart.c ****     /* USART1 interrupt Init */
 116:Core/Src/usart.c ****     HAL_NVIC_SetPriority(USART1_IRQn, 0, 0);
 117:Core/Src/usart.c ****     HAL_NVIC_EnableIRQ(USART1_IRQn);
 118:Core/Src/usart.c ****   /* USER CODE BEGIN USART1_MspInit 1 */
 119:Core/Src/usart.c **** 
 120:Core/Src/usart.c ****   /* USER CODE END USART1_MspInit 1 */
 121:Core/Src/usart.c ****   }
 122:Core/Src/usart.c ****   else if(uartHandle->Instance==USART3)
 200              		.loc 1 122 8 is_stmt 1 view .LVU53
 201              		.loc 1 122 10 is_stmt 0 view .LVU54
 202 001a 494A     		ldr	r2, .L23+4
 203 001c 9342     		cmp	r3, r2
 204 001e 2CD0     		beq	.L20
 205              	.LVL5:
 206              	.L13:
 123:Core/Src/usart.c ****   {
 124:Core/Src/usart.c ****   /* USER CODE BEGIN USART3_MspInit 0 */
 125:Core/Src/usart.c **** 
 126:Core/Src/usart.c ****   /* USER CODE END USART3_MspInit 0 */
 127:Core/Src/usart.c ****     /* USART3 clock enable */
 128:Core/Src/usart.c ****     __HAL_RCC_USART3_CLK_ENABLE();
 129:Core/Src/usart.c **** 
 130:Core/Src/usart.c ****     __HAL_RCC_GPIOB_CLK_ENABLE();
 131:Core/Src/usart.c ****     /**USART3 GPIO Configuration
 132:Core/Src/usart.c ****     PB10     ------> USART3_TX
 133:Core/Src/usart.c ****     PB11     ------> USART3_RX
 134:Core/Src/usart.c ****     */
 135:Core/Src/usart.c ****     GPIO_InitStruct.Pin = GPIO_PIN_10|GPIO_PIN_11;
 136:Core/Src/usart.c ****     GPIO_InitStruct.Mode = GPIO_MODE_AF_PP;
 137:Core/Src/usart.c ****     GPIO_InitStruct.Pull = GPIO_NOPULL;
 138:Core/Src/usart.c ****     GPIO_InitStruct.Speed = GPIO_SPEED_FREQ_VERY_HIGH;
 139:Core/Src/usart.c ****     GPIO_InitStruct.Alternate = GPIO_AF7_USART3;
ARM GAS  C:\Users\HUAWEI\AppData\Local\Temp\ccFG6VtR.s 			page 7


 140:Core/Src/usart.c ****     HAL_GPIO_Init(GPIOB, &GPIO_InitStruct);
 141:Core/Src/usart.c **** 
 142:Core/Src/usart.c ****     /* USART3 DMA Init */
 143:Core/Src/usart.c ****     /* USART3_RX Init */
 144:Core/Src/usart.c ****     hdma_usart3_rx.Instance = DMA1_Stream1;
 145:Core/Src/usart.c ****     hdma_usart3_rx.Init.Channel = DMA_CHANNEL_4;
 146:Core/Src/usart.c ****     hdma_usart3_rx.Init.Direction = DMA_PERIPH_TO_MEMORY;
 147:Core/Src/usart.c ****     hdma_usart3_rx.Init.PeriphInc = DMA_PINC_DISABLE;
 148:Core/Src/usart.c ****     hdma_usart3_rx.Init.MemInc = DMA_MINC_ENABLE;
 149:Core/Src/usart.c ****     hdma_usart3_rx.Init.PeriphDataAlignment = DMA_PDATAALIGN_BYTE;
 150:Core/Src/usart.c ****     hdma_usart3_rx.Init.MemDataAlignment = DMA_MDATAALIGN_BYTE;
 151:Core/Src/usart.c ****     hdma_usart3_rx.Init.Mode = DMA_NORMAL;
 152:Core/Src/usart.c ****     hdma_usart3_rx.Init.Priority = DMA_PRIORITY_LOW;
 153:Core/Src/usart.c ****     hdma_usart3_rx.Init.FIFOMode = DMA_FIFOMODE_DISABLE;
 154:Core/Src/usart.c ****     if (HAL_DMA_Init(&hdma_usart3_rx) != HAL_OK)
 155:Core/Src/usart.c ****     {
 156:Core/Src/usart.c ****       Error_Handler();
 157:Core/Src/usart.c ****     }
 158:Core/Src/usart.c **** 
 159:Core/Src/usart.c ****     __HAL_LINKDMA(uartHandle,hdmarx,hdma_usart3_rx);
 160:Core/Src/usart.c **** 
 161:Core/Src/usart.c ****     /* USART3_TX Init */
 162:Core/Src/usart.c ****     hdma_usart3_tx.Instance = DMA1_Stream3;
 163:Core/Src/usart.c ****     hdma_usart3_tx.Init.Channel = DMA_CHANNEL_4;
 164:Core/Src/usart.c ****     hdma_usart3_tx.Init.Direction = DMA_MEMORY_TO_PERIPH;
 165:Core/Src/usart.c ****     hdma_usart3_tx.Init.PeriphInc = DMA_PINC_DISABLE;
 166:Core/Src/usart.c ****     hdma_usart3_tx.Init.MemInc = DMA_MINC_ENABLE;
 167:Core/Src/usart.c ****     hdma_usart3_tx.Init.PeriphDataAlignment = DMA_PDATAALIGN_BYTE;
 168:Core/Src/usart.c ****     hdma_usart3_tx.Init.MemDataAlignment = DMA_MDATAALIGN_BYTE;
 169:Core/Src/usart.c ****     hdma_usart3_tx.Init.Mode = DMA_NORMAL;
 170:Core/Src/usart.c ****     hdma_usart3_tx.Init.Priority = DMA_PRIORITY_LOW;
 171:Core/Src/usart.c ****     hdma_usart3_tx.Init.FIFOMode = DMA_FIFOMODE_DISABLE;
 172:Core/Src/usart.c ****     if (HAL_DMA_Init(&hdma_usart3_tx) != HAL_OK)
 173:Core/Src/usart.c ****     {
 174:Core/Src/usart.c ****       Error_Handler();
 175:Core/Src/usart.c ****     }
 176:Core/Src/usart.c **** 
 177:Core/Src/usart.c ****     __HAL_LINKDMA(uartHandle,hdmatx,hdma_usart3_tx);
 178:Core/Src/usart.c **** 
 179:Core/Src/usart.c ****     /* USART3 interrupt Init */
 180:Core/Src/usart.c ****     HAL_NVIC_SetPriority(USART3_IRQn, 0, 0);
 181:Core/Src/usart.c ****     HAL_NVIC_EnableIRQ(USART3_IRQn);
 182:Core/Src/usart.c ****   /* USER CODE BEGIN USART3_MspInit 1 */
 183:Core/Src/usart.c **** 
 184:Core/Src/usart.c ****   /* USER CODE END USART3_MspInit 1 */
 185:Core/Src/usart.c ****   }
 186:Core/Src/usart.c **** }
 207              		.loc 1 186 1 view .LVU55
 208 0020 0BB0     		add	sp, sp, #44
 209              	.LCFI4:
 210              		.cfi_remember_state
 211              		.cfi_def_cfa_offset 12
 212              		@ sp needed
 213 0022 30BD     		pop	{r4, r5, pc}
 214              	.LVL6:
 215              	.L19:
 216              	.LCFI5:
ARM GAS  C:\Users\HUAWEI\AppData\Local\Temp\ccFG6VtR.s 			page 8


 217              		.cfi_restore_state
 101:Core/Src/usart.c **** 
 218              		.loc 1 101 5 is_stmt 1 view .LVU56
 219              	.LBB2:
 101:Core/Src/usart.c **** 
 220              		.loc 1 101 5 view .LVU57
 221 0024 0024     		movs	r4, #0
 222 0026 0194     		str	r4, [sp, #4]
 101:Core/Src/usart.c **** 
 223              		.loc 1 101 5 view .LVU58
 224 0028 464B     		ldr	r3, .L23+8
 225 002a 5A6C     		ldr	r2, [r3, #68]
 226 002c 42F01002 		orr	r2, r2, #16
 227 0030 5A64     		str	r2, [r3, #68]
 101:Core/Src/usart.c **** 
 228              		.loc 1 101 5 view .LVU59
 229 0032 5A6C     		ldr	r2, [r3, #68]
 230 0034 02F01002 		and	r2, r2, #16
 231 0038 0192     		str	r2, [sp, #4]
 101:Core/Src/usart.c **** 
 232              		.loc 1 101 5 view .LVU60
 233 003a 019A     		ldr	r2, [sp, #4]
 234              	.LBE2:
 101:Core/Src/usart.c **** 
 235              		.loc 1 101 5 view .LVU61
 103:Core/Src/usart.c ****     /**USART1 GPIO Configuration
 236              		.loc 1 103 5 view .LVU62
 237              	.LBB3:
 103:Core/Src/usart.c ****     /**USART1 GPIO Configuration
 238              		.loc 1 103 5 view .LVU63
 239 003c 0294     		str	r4, [sp, #8]
 103:Core/Src/usart.c ****     /**USART1 GPIO Configuration
 240              		.loc 1 103 5 view .LVU64
 241 003e 1A6B     		ldr	r2, [r3, #48]
 242 0040 42F00202 		orr	r2, r2, #2
 243 0044 1A63     		str	r2, [r3, #48]
 103:Core/Src/usart.c ****     /**USART1 GPIO Configuration
 244              		.loc 1 103 5 view .LVU65
 245 0046 1B6B     		ldr	r3, [r3, #48]
 246 0048 03F00203 		and	r3, r3, #2
 247 004c 0293     		str	r3, [sp, #8]
 103:Core/Src/usart.c ****     /**USART1 GPIO Configuration
 248              		.loc 1 103 5 view .LVU66
 249 004e 029B     		ldr	r3, [sp, #8]
 250              	.LBE3:
 103:Core/Src/usart.c ****     /**USART1 GPIO Configuration
 251              		.loc 1 103 5 view .LVU67
 108:Core/Src/usart.c ****     GPIO_InitStruct.Mode = GPIO_MODE_AF_PP;
 252              		.loc 1 108 5 view .LVU68
 108:Core/Src/usart.c ****     GPIO_InitStruct.Mode = GPIO_MODE_AF_PP;
 253              		.loc 1 108 25 is_stmt 0 view .LVU69
 254 0050 C023     		movs	r3, #192
 255 0052 0593     		str	r3, [sp, #20]
 109:Core/Src/usart.c ****     GPIO_InitStruct.Pull = GPIO_NOPULL;
 256              		.loc 1 109 5 is_stmt 1 view .LVU70
 109:Core/Src/usart.c ****     GPIO_InitStruct.Pull = GPIO_NOPULL;
 257              		.loc 1 109 26 is_stmt 0 view .LVU71
ARM GAS  C:\Users\HUAWEI\AppData\Local\Temp\ccFG6VtR.s 			page 9


 258 0054 0223     		movs	r3, #2
 259 0056 0693     		str	r3, [sp, #24]
 110:Core/Src/usart.c ****     GPIO_InitStruct.Speed = GPIO_SPEED_FREQ_VERY_HIGH;
 260              		.loc 1 110 5 is_stmt 1 view .LVU72
 111:Core/Src/usart.c ****     GPIO_InitStruct.Alternate = GPIO_AF7_USART1;
 261              		.loc 1 111 5 view .LVU73
 111:Core/Src/usart.c ****     GPIO_InitStruct.Alternate = GPIO_AF7_USART1;
 262              		.loc 1 111 27 is_stmt 0 view .LVU74
 263 0058 0323     		movs	r3, #3
 264 005a 0893     		str	r3, [sp, #32]
 112:Core/Src/usart.c ****     HAL_GPIO_Init(GPIOB, &GPIO_InitStruct);
 265              		.loc 1 112 5 is_stmt 1 view .LVU75
 112:Core/Src/usart.c ****     HAL_GPIO_Init(GPIOB, &GPIO_InitStruct);
 266              		.loc 1 112 31 is_stmt 0 view .LVU76
 267 005c 0723     		movs	r3, #7
 268 005e 0993     		str	r3, [sp, #36]
 113:Core/Src/usart.c **** 
 269              		.loc 1 113 5 is_stmt 1 view .LVU77
 270 0060 05A9     		add	r1, sp, #20
 271 0062 3948     		ldr	r0, .L23+12
 272              	.LVL7:
 113:Core/Src/usart.c **** 
 273              		.loc 1 113 5 is_stmt 0 view .LVU78
 274 0064 FFF7FEFF 		bl	HAL_GPIO_Init
 275              	.LVL8:
 116:Core/Src/usart.c ****     HAL_NVIC_EnableIRQ(USART1_IRQn);
 276              		.loc 1 116 5 is_stmt 1 view .LVU79
 277 0068 2246     		mov	r2, r4
 278 006a 2146     		mov	r1, r4
 279 006c 2520     		movs	r0, #37
 280 006e FFF7FEFF 		bl	HAL_NVIC_SetPriority
 281              	.LVL9:
 117:Core/Src/usart.c ****   /* USER CODE BEGIN USART1_MspInit 1 */
 282              		.loc 1 117 5 view .LVU80
 283 0072 2520     		movs	r0, #37
 284 0074 FFF7FEFF 		bl	HAL_NVIC_EnableIRQ
 285              	.LVL10:
 286 0078 D2E7     		b	.L13
 287              	.LVL11:
 288              	.L20:
 128:Core/Src/usart.c **** 
 289              		.loc 1 128 5 view .LVU81
 290              	.LBB4:
 128:Core/Src/usart.c **** 
 291              		.loc 1 128 5 view .LVU82
 292 007a 0025     		movs	r5, #0
 293 007c 0395     		str	r5, [sp, #12]
 128:Core/Src/usart.c **** 
 294              		.loc 1 128 5 view .LVU83
 295 007e 314B     		ldr	r3, .L23+8
 296 0080 1A6C     		ldr	r2, [r3, #64]
 297 0082 42F48022 		orr	r2, r2, #262144
 298 0086 1A64     		str	r2, [r3, #64]
 128:Core/Src/usart.c **** 
 299              		.loc 1 128 5 view .LVU84
 300 0088 1A6C     		ldr	r2, [r3, #64]
 301 008a 02F48022 		and	r2, r2, #262144
ARM GAS  C:\Users\HUAWEI\AppData\Local\Temp\ccFG6VtR.s 			page 10


 302 008e 0392     		str	r2, [sp, #12]
 128:Core/Src/usart.c **** 
 303              		.loc 1 128 5 view .LVU85
 304 0090 039A     		ldr	r2, [sp, #12]
 305              	.LBE4:
 128:Core/Src/usart.c **** 
 306              		.loc 1 128 5 view .LVU86
 130:Core/Src/usart.c ****     /**USART3 GPIO Configuration
 307              		.loc 1 130 5 view .LVU87
 308              	.LBB5:
 130:Core/Src/usart.c ****     /**USART3 GPIO Configuration
 309              		.loc 1 130 5 view .LVU88
 310 0092 0495     		str	r5, [sp, #16]
 130:Core/Src/usart.c ****     /**USART3 GPIO Configuration
 311              		.loc 1 130 5 view .LVU89
 312 0094 1A6B     		ldr	r2, [r3, #48]
 313 0096 42F00202 		orr	r2, r2, #2
 314 009a 1A63     		str	r2, [r3, #48]
 130:Core/Src/usart.c ****     /**USART3 GPIO Configuration
 315              		.loc 1 130 5 view .LVU90
 316 009c 1B6B     		ldr	r3, [r3, #48]
 317 009e 03F00203 		and	r3, r3, #2
 318 00a2 0493     		str	r3, [sp, #16]
 130:Core/Src/usart.c ****     /**USART3 GPIO Configuration
 319              		.loc 1 130 5 view .LVU91
 320 00a4 049B     		ldr	r3, [sp, #16]
 321              	.LBE5:
 130:Core/Src/usart.c ****     /**USART3 GPIO Configuration
 322              		.loc 1 130 5 view .LVU92
 135:Core/Src/usart.c ****     GPIO_InitStruct.Mode = GPIO_MODE_AF_PP;
 323              		.loc 1 135 5 view .LVU93
 135:Core/Src/usart.c ****     GPIO_InitStruct.Mode = GPIO_MODE_AF_PP;
 324              		.loc 1 135 25 is_stmt 0 view .LVU94
 325 00a6 4FF44063 		mov	r3, #3072
 326 00aa 0593     		str	r3, [sp, #20]
 136:Core/Src/usart.c ****     GPIO_InitStruct.Pull = GPIO_NOPULL;
 327              		.loc 1 136 5 is_stmt 1 view .LVU95
 136:Core/Src/usart.c ****     GPIO_InitStruct.Pull = GPIO_NOPULL;
 328              		.loc 1 136 26 is_stmt 0 view .LVU96
 329 00ac 0223     		movs	r3, #2
 330 00ae 0693     		str	r3, [sp, #24]
 137:Core/Src/usart.c ****     GPIO_InitStruct.Speed = GPIO_SPEED_FREQ_VERY_HIGH;
 331              		.loc 1 137 5 is_stmt 1 view .LVU97
 138:Core/Src/usart.c ****     GPIO_InitStruct.Alternate = GPIO_AF7_USART3;
 332              		.loc 1 138 5 view .LVU98
 138:Core/Src/usart.c ****     GPIO_InitStruct.Alternate = GPIO_AF7_USART3;
 333              		.loc 1 138 27 is_stmt 0 view .LVU99
 334 00b0 0323     		movs	r3, #3
 335 00b2 0893     		str	r3, [sp, #32]
 139:Core/Src/usart.c ****     HAL_GPIO_Init(GPIOB, &GPIO_InitStruct);
 336              		.loc 1 139 5 is_stmt 1 view .LVU100
 139:Core/Src/usart.c ****     HAL_GPIO_Init(GPIOB, &GPIO_InitStruct);
 337              		.loc 1 139 31 is_stmt 0 view .LVU101
 338 00b4 0723     		movs	r3, #7
 339 00b6 0993     		str	r3, [sp, #36]
 140:Core/Src/usart.c **** 
 340              		.loc 1 140 5 is_stmt 1 view .LVU102
ARM GAS  C:\Users\HUAWEI\AppData\Local\Temp\ccFG6VtR.s 			page 11


 341 00b8 05A9     		add	r1, sp, #20
 342 00ba 2348     		ldr	r0, .L23+12
 343              	.LVL12:
 140:Core/Src/usart.c **** 
 344              		.loc 1 140 5 is_stmt 0 view .LVU103
 345 00bc FFF7FEFF 		bl	HAL_GPIO_Init
 346              	.LVL13:
 144:Core/Src/usart.c ****     hdma_usart3_rx.Init.Channel = DMA_CHANNEL_4;
 347              		.loc 1 144 5 is_stmt 1 view .LVU104
 144:Core/Src/usart.c ****     hdma_usart3_rx.Init.Channel = DMA_CHANNEL_4;
 348              		.loc 1 144 29 is_stmt 0 view .LVU105
 349 00c0 2248     		ldr	r0, .L23+16
 350 00c2 234B     		ldr	r3, .L23+20
 351 00c4 0360     		str	r3, [r0]
 145:Core/Src/usart.c ****     hdma_usart3_rx.Init.Direction = DMA_PERIPH_TO_MEMORY;
 352              		.loc 1 145 5 is_stmt 1 view .LVU106
 145:Core/Src/usart.c ****     hdma_usart3_rx.Init.Direction = DMA_PERIPH_TO_MEMORY;
 353              		.loc 1 145 33 is_stmt 0 view .LVU107
 354 00c6 4FF00063 		mov	r3, #134217728
 355 00ca 4360     		str	r3, [r0, #4]
 146:Core/Src/usart.c ****     hdma_usart3_rx.Init.PeriphInc = DMA_PINC_DISABLE;
 356              		.loc 1 146 5 is_stmt 1 view .LVU108
 146:Core/Src/usart.c ****     hdma_usart3_rx.Init.PeriphInc = DMA_PINC_DISABLE;
 357              		.loc 1 146 35 is_stmt 0 view .LVU109
 358 00cc 8560     		str	r5, [r0, #8]
 147:Core/Src/usart.c ****     hdma_usart3_rx.Init.MemInc = DMA_MINC_ENABLE;
 359              		.loc 1 147 5 is_stmt 1 view .LVU110
 147:Core/Src/usart.c ****     hdma_usart3_rx.Init.MemInc = DMA_MINC_ENABLE;
 360              		.loc 1 147 35 is_stmt 0 view .LVU111
 361 00ce C560     		str	r5, [r0, #12]
 148:Core/Src/usart.c ****     hdma_usart3_rx.Init.PeriphDataAlignment = DMA_PDATAALIGN_BYTE;
 362              		.loc 1 148 5 is_stmt 1 view .LVU112
 148:Core/Src/usart.c ****     hdma_usart3_rx.Init.PeriphDataAlignment = DMA_PDATAALIGN_BYTE;
 363              		.loc 1 148 32 is_stmt 0 view .LVU113
 364 00d0 4FF48063 		mov	r3, #1024
 365 00d4 0361     		str	r3, [r0, #16]
 149:Core/Src/usart.c ****     hdma_usart3_rx.Init.MemDataAlignment = DMA_MDATAALIGN_BYTE;
 366              		.loc 1 149 5 is_stmt 1 view .LVU114
 149:Core/Src/usart.c ****     hdma_usart3_rx.Init.MemDataAlignment = DMA_MDATAALIGN_BYTE;
 367              		.loc 1 149 45 is_stmt 0 view .LVU115
 368 00d6 4561     		str	r5, [r0, #20]
 150:Core/Src/usart.c ****     hdma_usart3_rx.Init.Mode = DMA_NORMAL;
 369              		.loc 1 150 5 is_stmt 1 view .LVU116
 150:Core/Src/usart.c ****     hdma_usart3_rx.Init.Mode = DMA_NORMAL;
 370              		.loc 1 150 42 is_stmt 0 view .LVU117
 371 00d8 8561     		str	r5, [r0, #24]
 151:Core/Src/usart.c ****     hdma_usart3_rx.Init.Priority = DMA_PRIORITY_LOW;
 372              		.loc 1 151 5 is_stmt 1 view .LVU118
 151:Core/Src/usart.c ****     hdma_usart3_rx.Init.Priority = DMA_PRIORITY_LOW;
 373              		.loc 1 151 30 is_stmt 0 view .LVU119
 374 00da C561     		str	r5, [r0, #28]
 152:Core/Src/usart.c ****     hdma_usart3_rx.Init.FIFOMode = DMA_FIFOMODE_DISABLE;
 375              		.loc 1 152 5 is_stmt 1 view .LVU120
 152:Core/Src/usart.c ****     hdma_usart3_rx.Init.FIFOMode = DMA_FIFOMODE_DISABLE;
 376              		.loc 1 152 34 is_stmt 0 view .LVU121
 377 00dc 0562     		str	r5, [r0, #32]
 153:Core/Src/usart.c ****     if (HAL_DMA_Init(&hdma_usart3_rx) != HAL_OK)
ARM GAS  C:\Users\HUAWEI\AppData\Local\Temp\ccFG6VtR.s 			page 12


 378              		.loc 1 153 5 is_stmt 1 view .LVU122
 153:Core/Src/usart.c ****     if (HAL_DMA_Init(&hdma_usart3_rx) != HAL_OK)
 379              		.loc 1 153 34 is_stmt 0 view .LVU123
 380 00de 4562     		str	r5, [r0, #36]
 154:Core/Src/usart.c ****     {
 381              		.loc 1 154 5 is_stmt 1 view .LVU124
 154:Core/Src/usart.c ****     {
 382              		.loc 1 154 9 is_stmt 0 view .LVU125
 383 00e0 FFF7FEFF 		bl	HAL_DMA_Init
 384              	.LVL14:
 154:Core/Src/usart.c ****     {
 385              		.loc 1 154 8 view .LVU126
 386 00e4 18BB     		cbnz	r0, .L21
 387              	.L16:
 159:Core/Src/usart.c **** 
 388              		.loc 1 159 5 is_stmt 1 view .LVU127
 159:Core/Src/usart.c **** 
 389              		.loc 1 159 5 view .LVU128
 390 00e6 194B     		ldr	r3, .L23+16
 391 00e8 E363     		str	r3, [r4, #60]
 159:Core/Src/usart.c **** 
 392              		.loc 1 159 5 view .LVU129
 393 00ea 9C63     		str	r4, [r3, #56]
 159:Core/Src/usart.c **** 
 394              		.loc 1 159 5 view .LVU130
 162:Core/Src/usart.c ****     hdma_usart3_tx.Init.Channel = DMA_CHANNEL_4;
 395              		.loc 1 162 5 view .LVU131
 162:Core/Src/usart.c ****     hdma_usart3_tx.Init.Channel = DMA_CHANNEL_4;
 396              		.loc 1 162 29 is_stmt 0 view .LVU132
 397 00ec 1948     		ldr	r0, .L23+24
 398 00ee 1A4B     		ldr	r3, .L23+28
 399 00f0 0360     		str	r3, [r0]
 163:Core/Src/usart.c ****     hdma_usart3_tx.Init.Direction = DMA_MEMORY_TO_PERIPH;
 400              		.loc 1 163 5 is_stmt 1 view .LVU133
 163:Core/Src/usart.c ****     hdma_usart3_tx.Init.Direction = DMA_MEMORY_TO_PERIPH;
 401              		.loc 1 163 33 is_stmt 0 view .LVU134
 402 00f2 4FF00063 		mov	r3, #134217728
 403 00f6 4360     		str	r3, [r0, #4]
 164:Core/Src/usart.c ****     hdma_usart3_tx.Init.PeriphInc = DMA_PINC_DISABLE;
 404              		.loc 1 164 5 is_stmt 1 view .LVU135
 164:Core/Src/usart.c ****     hdma_usart3_tx.Init.PeriphInc = DMA_PINC_DISABLE;
 405              		.loc 1 164 35 is_stmt 0 view .LVU136
 406 00f8 4023     		movs	r3, #64
 407 00fa 8360     		str	r3, [r0, #8]
 165:Core/Src/usart.c ****     hdma_usart3_tx.Init.MemInc = DMA_MINC_ENABLE;
 408              		.loc 1 165 5 is_stmt 1 view .LVU137
 165:Core/Src/usart.c ****     hdma_usart3_tx.Init.MemInc = DMA_MINC_ENABLE;
 409              		.loc 1 165 35 is_stmt 0 view .LVU138
 410 00fc 0023     		movs	r3, #0
 411 00fe C360     		str	r3, [r0, #12]
 166:Core/Src/usart.c ****     hdma_usart3_tx.Init.PeriphDataAlignment = DMA_PDATAALIGN_BYTE;
 412              		.loc 1 166 5 is_stmt 1 view .LVU139
 166:Core/Src/usart.c ****     hdma_usart3_tx.Init.PeriphDataAlignment = DMA_PDATAALIGN_BYTE;
 413              		.loc 1 166 32 is_stmt 0 view .LVU140
 414 0100 4FF48062 		mov	r2, #1024
 415 0104 0261     		str	r2, [r0, #16]
 167:Core/Src/usart.c ****     hdma_usart3_tx.Init.MemDataAlignment = DMA_MDATAALIGN_BYTE;
ARM GAS  C:\Users\HUAWEI\AppData\Local\Temp\ccFG6VtR.s 			page 13


 416              		.loc 1 167 5 is_stmt 1 view .LVU141
 167:Core/Src/usart.c ****     hdma_usart3_tx.Init.MemDataAlignment = DMA_MDATAALIGN_BYTE;
 417              		.loc 1 167 45 is_stmt 0 view .LVU142
 418 0106 4361     		str	r3, [r0, #20]
 168:Core/Src/usart.c ****     hdma_usart3_tx.Init.Mode = DMA_NORMAL;
 419              		.loc 1 168 5 is_stmt 1 view .LVU143
 168:Core/Src/usart.c ****     hdma_usart3_tx.Init.Mode = DMA_NORMAL;
 420              		.loc 1 168 42 is_stmt 0 view .LVU144
 421 0108 8361     		str	r3, [r0, #24]
 169:Core/Src/usart.c ****     hdma_usart3_tx.Init.Priority = DMA_PRIORITY_LOW;
 422              		.loc 1 169 5 is_stmt 1 view .LVU145
 169:Core/Src/usart.c ****     hdma_usart3_tx.Init.Priority = DMA_PRIORITY_LOW;
 423              		.loc 1 169 30 is_stmt 0 view .LVU146
 424 010a C361     		str	r3, [r0, #28]
 170:Core/Src/usart.c ****     hdma_usart3_tx.Init.FIFOMode = DMA_FIFOMODE_DISABLE;
 425              		.loc 1 170 5 is_stmt 1 view .LVU147
 170:Core/Src/usart.c ****     hdma_usart3_tx.Init.FIFOMode = DMA_FIFOMODE_DISABLE;
 426              		.loc 1 170 34 is_stmt 0 view .LVU148
 427 010c 0362     		str	r3, [r0, #32]
 171:Core/Src/usart.c ****     if (HAL_DMA_Init(&hdma_usart3_tx) != HAL_OK)
 428              		.loc 1 171 5 is_stmt 1 view .LVU149
 171:Core/Src/usart.c ****     if (HAL_DMA_Init(&hdma_usart3_tx) != HAL_OK)
 429              		.loc 1 171 34 is_stmt 0 view .LVU150
 430 010e 4362     		str	r3, [r0, #36]
 172:Core/Src/usart.c ****     {
 431              		.loc 1 172 5 is_stmt 1 view .LVU151
 172:Core/Src/usart.c ****     {
 432              		.loc 1 172 9 is_stmt 0 view .LVU152
 433 0110 FFF7FEFF 		bl	HAL_DMA_Init
 434              	.LVL15:
 172:Core/Src/usart.c ****     {
 435              		.loc 1 172 8 view .LVU153
 436 0114 70B9     		cbnz	r0, .L22
 437              	.L17:
 177:Core/Src/usart.c **** 
 438              		.loc 1 177 5 is_stmt 1 view .LVU154
 177:Core/Src/usart.c **** 
 439              		.loc 1 177 5 view .LVU155
 440 0116 0F4B     		ldr	r3, .L23+24
 441 0118 A363     		str	r3, [r4, #56]
 177:Core/Src/usart.c **** 
 442              		.loc 1 177 5 view .LVU156
 443 011a 9C63     		str	r4, [r3, #56]
 177:Core/Src/usart.c **** 
 444              		.loc 1 177 5 view .LVU157
 180:Core/Src/usart.c ****     HAL_NVIC_EnableIRQ(USART3_IRQn);
 445              		.loc 1 180 5 view .LVU158
 446 011c 0022     		movs	r2, #0
 447 011e 1146     		mov	r1, r2
 448 0120 2720     		movs	r0, #39
 449 0122 FFF7FEFF 		bl	HAL_NVIC_SetPriority
 450              	.LVL16:
 181:Core/Src/usart.c ****   /* USER CODE BEGIN USART3_MspInit 1 */
 451              		.loc 1 181 5 view .LVU159
 452 0126 2720     		movs	r0, #39
 453 0128 FFF7FEFF 		bl	HAL_NVIC_EnableIRQ
 454              	.LVL17:
ARM GAS  C:\Users\HUAWEI\AppData\Local\Temp\ccFG6VtR.s 			page 14


 455              		.loc 1 186 1 is_stmt 0 view .LVU160
 456 012c 78E7     		b	.L13
 457              	.L21:
 156:Core/Src/usart.c ****     }
 458              		.loc 1 156 7 is_stmt 1 view .LVU161
 459 012e FFF7FEFF 		bl	Error_Handler
 460              	.LVL18:
 461 0132 D8E7     		b	.L16
 462              	.L22:
 174:Core/Src/usart.c ****     }
 463              		.loc 1 174 7 view .LVU162
 464 0134 FFF7FEFF 		bl	Error_Handler
 465              	.LVL19:
 466 0138 EDE7     		b	.L17
 467              	.L24:
 468 013a 00BF     		.align	2
 469              	.L23:
 470 013c 00100140 		.word	1073811456
 471 0140 00480040 		.word	1073760256
 472 0144 00380240 		.word	1073887232
 473 0148 00040240 		.word	1073873920
 474 014c 00000000 		.word	.LANCHOR2
 475 0150 28600240 		.word	1073897512
 476 0154 00000000 		.word	.LANCHOR3
 477 0158 58600240 		.word	1073897560
 478              		.cfi_endproc
 479              	.LFE136:
 481              		.section	.text.HAL_UART_MspDeInit,"ax",%progbits
 482              		.align	1
 483              		.global	HAL_UART_MspDeInit
 484              		.syntax unified
 485              		.thumb
 486              		.thumb_func
 488              	HAL_UART_MspDeInit:
 489              	.LVL20:
 490              	.LFB137:
 187:Core/Src/usart.c **** 
 188:Core/Src/usart.c **** void HAL_UART_MspDeInit(UART_HandleTypeDef* uartHandle)
 189:Core/Src/usart.c **** {
 491              		.loc 1 189 1 view -0
 492              		.cfi_startproc
 493              		@ args = 0, pretend = 0, frame = 0
 494              		@ frame_needed = 0, uses_anonymous_args = 0
 495              		.loc 1 189 1 is_stmt 0 view .LVU164
 496 0000 10B5     		push	{r4, lr}
 497              	.LCFI6:
 498              		.cfi_def_cfa_offset 8
 499              		.cfi_offset 4, -8
 500              		.cfi_offset 14, -4
 190:Core/Src/usart.c **** 
 191:Core/Src/usart.c ****   if(uartHandle->Instance==USART1)
 501              		.loc 1 191 3 is_stmt 1 view .LVU165
 502              		.loc 1 191 16 is_stmt 0 view .LVU166
 503 0002 0368     		ldr	r3, [r0]
 504              		.loc 1 191 5 view .LVU167
 505 0004 154A     		ldr	r2, .L31
 506 0006 9342     		cmp	r3, r2
ARM GAS  C:\Users\HUAWEI\AppData\Local\Temp\ccFG6VtR.s 			page 15


 507 0008 04D0     		beq	.L29
 508 000a 0446     		mov	r4, r0
 192:Core/Src/usart.c ****   {
 193:Core/Src/usart.c ****   /* USER CODE BEGIN USART1_MspDeInit 0 */
 194:Core/Src/usart.c **** 
 195:Core/Src/usart.c ****   /* USER CODE END USART1_MspDeInit 0 */
 196:Core/Src/usart.c ****     /* Peripheral clock disable */
 197:Core/Src/usart.c ****     __HAL_RCC_USART1_CLK_DISABLE();
 198:Core/Src/usart.c **** 
 199:Core/Src/usart.c ****     /**USART1 GPIO Configuration
 200:Core/Src/usart.c ****     PB6     ------> USART1_TX
 201:Core/Src/usart.c ****     PB7     ------> USART1_RX
 202:Core/Src/usart.c ****     */
 203:Core/Src/usart.c ****     HAL_GPIO_DeInit(GPIOB, GPIO_PIN_6|GPIO_PIN_7);
 204:Core/Src/usart.c **** 
 205:Core/Src/usart.c ****     /* USART1 interrupt Deinit */
 206:Core/Src/usart.c ****     HAL_NVIC_DisableIRQ(USART1_IRQn);
 207:Core/Src/usart.c ****   /* USER CODE BEGIN USART1_MspDeInit 1 */
 208:Core/Src/usart.c **** 
 209:Core/Src/usart.c ****   /* USER CODE END USART1_MspDeInit 1 */
 210:Core/Src/usart.c ****   }
 211:Core/Src/usart.c ****   else if(uartHandle->Instance==USART3)
 509              		.loc 1 211 8 is_stmt 1 view .LVU168
 510              		.loc 1 211 10 is_stmt 0 view .LVU169
 511 000c 144A     		ldr	r2, .L31+4
 512 000e 9342     		cmp	r3, r2
 513 0010 0ED0     		beq	.L30
 514              	.LVL21:
 515              	.L25:
 212:Core/Src/usart.c ****   {
 213:Core/Src/usart.c ****   /* USER CODE BEGIN USART3_MspDeInit 0 */
 214:Core/Src/usart.c **** 
 215:Core/Src/usart.c ****   /* USER CODE END USART3_MspDeInit 0 */
 216:Core/Src/usart.c ****     /* Peripheral clock disable */
 217:Core/Src/usart.c ****     __HAL_RCC_USART3_CLK_DISABLE();
 218:Core/Src/usart.c **** 
 219:Core/Src/usart.c ****     /**USART3 GPIO Configuration
 220:Core/Src/usart.c ****     PB10     ------> USART3_TX
 221:Core/Src/usart.c ****     PB11     ------> USART3_RX
 222:Core/Src/usart.c ****     */
 223:Core/Src/usart.c ****     HAL_GPIO_DeInit(GPIOB, GPIO_PIN_10|GPIO_PIN_11);
 224:Core/Src/usart.c **** 
 225:Core/Src/usart.c ****     /* USART3 DMA DeInit */
 226:Core/Src/usart.c ****     HAL_DMA_DeInit(uartHandle->hdmarx);
 227:Core/Src/usart.c ****     HAL_DMA_DeInit(uartHandle->hdmatx);
 228:Core/Src/usart.c **** 
 229:Core/Src/usart.c ****     /* USART3 interrupt Deinit */
 230:Core/Src/usart.c ****     HAL_NVIC_DisableIRQ(USART3_IRQn);
 231:Core/Src/usart.c ****   /* USER CODE BEGIN USART3_MspDeInit 1 */
 232:Core/Src/usart.c **** 
 233:Core/Src/usart.c ****   /* USER CODE END USART3_MspDeInit 1 */
 234:Core/Src/usart.c ****   }
 235:Core/Src/usart.c **** }
 516              		.loc 1 235 1 view .LVU170
 517 0012 10BD     		pop	{r4, pc}
 518              	.LVL22:
 519              	.L29:
ARM GAS  C:\Users\HUAWEI\AppData\Local\Temp\ccFG6VtR.s 			page 16


 197:Core/Src/usart.c **** 
 520              		.loc 1 197 5 is_stmt 1 view .LVU171
 521 0014 02F59432 		add	r2, r2, #75776
 522 0018 536C     		ldr	r3, [r2, #68]
 523 001a 23F01003 		bic	r3, r3, #16
 524 001e 5364     		str	r3, [r2, #68]
 203:Core/Src/usart.c **** 
 525              		.loc 1 203 5 view .LVU172
 526 0020 C021     		movs	r1, #192
 527 0022 1048     		ldr	r0, .L31+8
 528              	.LVL23:
 203:Core/Src/usart.c **** 
 529              		.loc 1 203 5 is_stmt 0 view .LVU173
 530 0024 FFF7FEFF 		bl	HAL_GPIO_DeInit
 531              	.LVL24:
 206:Core/Src/usart.c ****   /* USER CODE BEGIN USART1_MspDeInit 1 */
 532              		.loc 1 206 5 is_stmt 1 view .LVU174
 533 0028 2520     		movs	r0, #37
 534 002a FFF7FEFF 		bl	HAL_NVIC_DisableIRQ
 535              	.LVL25:
 536 002e F0E7     		b	.L25
 537              	.LVL26:
 538              	.L30:
 217:Core/Src/usart.c **** 
 539              		.loc 1 217 5 view .LVU175
 540 0030 02F5F832 		add	r2, r2, #126976
 541 0034 136C     		ldr	r3, [r2, #64]
 542 0036 23F48023 		bic	r3, r3, #262144
 543 003a 1364     		str	r3, [r2, #64]
 223:Core/Src/usart.c **** 
 544              		.loc 1 223 5 view .LVU176
 545 003c 4FF44061 		mov	r1, #3072
 546 0040 0848     		ldr	r0, .L31+8
 547              	.LVL27:
 223:Core/Src/usart.c **** 
 548              		.loc 1 223 5 is_stmt 0 view .LVU177
 549 0042 FFF7FEFF 		bl	HAL_GPIO_DeInit
 550              	.LVL28:
 226:Core/Src/usart.c ****     HAL_DMA_DeInit(uartHandle->hdmatx);
 551              		.loc 1 226 5 is_stmt 1 view .LVU178
 552 0046 E06B     		ldr	r0, [r4, #60]
 553 0048 FFF7FEFF 		bl	HAL_DMA_DeInit
 554              	.LVL29:
 227:Core/Src/usart.c **** 
 555              		.loc 1 227 5 view .LVU179
 556 004c A06B     		ldr	r0, [r4, #56]
 557 004e FFF7FEFF 		bl	HAL_DMA_DeInit
 558              	.LVL30:
 230:Core/Src/usart.c ****   /* USER CODE BEGIN USART3_MspDeInit 1 */
 559              		.loc 1 230 5 view .LVU180
 560 0052 2720     		movs	r0, #39
 561 0054 FFF7FEFF 		bl	HAL_NVIC_DisableIRQ
 562              	.LVL31:
 563              		.loc 1 235 1 is_stmt 0 view .LVU181
 564 0058 DBE7     		b	.L25
 565              	.L32:
 566 005a 00BF     		.align	2
ARM GAS  C:\Users\HUAWEI\AppData\Local\Temp\ccFG6VtR.s 			page 17


 567              	.L31:
 568 005c 00100140 		.word	1073811456
 569 0060 00480040 		.word	1073760256
 570 0064 00040240 		.word	1073873920
 571              		.cfi_endproc
 572              	.LFE137:
 574              		.global	hdma_usart3_tx
 575              		.global	hdma_usart3_rx
 576              		.global	huart3
 577              		.global	huart1
 578              		.section	.bss.hdma_usart3_rx,"aw",%nobits
 579              		.align	2
 580              		.set	.LANCHOR2,. + 0
 583              	hdma_usart3_rx:
 584 0000 00000000 		.space	96
 584      00000000 
 584      00000000 
 584      00000000 
 584      00000000 
 585              		.section	.bss.hdma_usart3_tx,"aw",%nobits
 586              		.align	2
 587              		.set	.LANCHOR3,. + 0
 590              	hdma_usart3_tx:
 591 0000 00000000 		.space	96
 591      00000000 
 591      00000000 
 591      00000000 
 591      00000000 
 592              		.section	.bss.huart1,"aw",%nobits
 593              		.align	2
 594              		.set	.LANCHOR0,. + 0
 597              	huart1:
 598 0000 00000000 		.space	72
 598      00000000 
 598      00000000 
 598      00000000 
 598      00000000 
 599              		.section	.bss.huart3,"aw",%nobits
 600              		.align	2
 601              		.set	.LANCHOR1,. + 0
 604              	huart3:
 605 0000 00000000 		.space	72
 605      00000000 
 605      00000000 
 605      00000000 
 605      00000000 
 606              		.text
 607              	.Letext0:
 608              		.file 2 "d:\\baidunetdiskdownload\\archive\\ec\\vscode_ozone\\gcc-arm-none-eabi-10.3-2021.10-win32
 609              		.file 3 "d:\\baidunetdiskdownload\\archive\\ec\\vscode_ozone\\gcc-arm-none-eabi-10.3-2021.10-win32
 610              		.file 4 "Drivers/CMSIS/Device/ST/STM32F4xx/Include/stm32f405xx.h"
 611              		.file 5 "Drivers/STM32F4xx_HAL_Driver/Inc/stm32f4xx_hal_def.h"
 612              		.file 6 "Drivers/STM32F4xx_HAL_Driver/Inc/stm32f4xx_hal_gpio.h"
 613              		.file 7 "Drivers/STM32F4xx_HAL_Driver/Inc/stm32f4xx_hal_dma.h"
 614              		.file 8 "Drivers/STM32F4xx_HAL_Driver/Inc/stm32f4xx_hal_uart.h"
 615              		.file 9 "Core/Inc/usart.h"
 616              		.file 10 "Drivers/STM32F4xx_HAL_Driver/Inc/stm32f4xx_hal_cortex.h"
ARM GAS  C:\Users\HUAWEI\AppData\Local\Temp\ccFG6VtR.s 			page 18


 617              		.file 11 "Core/Inc/main.h"
ARM GAS  C:\Users\HUAWEI\AppData\Local\Temp\ccFG6VtR.s 			page 19


DEFINED SYMBOLS
                            *ABS*:00000000 usart.c
C:\Users\HUAWEI\AppData\Local\Temp\ccFG6VtR.s:20     .text.MX_USART1_UART_Init:00000000 $t
C:\Users\HUAWEI\AppData\Local\Temp\ccFG6VtR.s:26     .text.MX_USART1_UART_Init:00000000 MX_USART1_UART_Init
C:\Users\HUAWEI\AppData\Local\Temp\ccFG6VtR.s:85     .text.MX_USART1_UART_Init:0000002c $d
C:\Users\HUAWEI\AppData\Local\Temp\ccFG6VtR.s:91     .text.MX_USART3_UART_Init:00000000 $t
C:\Users\HUAWEI\AppData\Local\Temp\ccFG6VtR.s:97     .text.MX_USART3_UART_Init:00000000 MX_USART3_UART_Init
C:\Users\HUAWEI\AppData\Local\Temp\ccFG6VtR.s:155    .text.MX_USART3_UART_Init:0000002c $d
C:\Users\HUAWEI\AppData\Local\Temp\ccFG6VtR.s:161    .text.HAL_UART_MspInit:00000000 $t
C:\Users\HUAWEI\AppData\Local\Temp\ccFG6VtR.s:167    .text.HAL_UART_MspInit:00000000 HAL_UART_MspInit
C:\Users\HUAWEI\AppData\Local\Temp\ccFG6VtR.s:470    .text.HAL_UART_MspInit:0000013c $d
C:\Users\HUAWEI\AppData\Local\Temp\ccFG6VtR.s:482    .text.HAL_UART_MspDeInit:00000000 $t
C:\Users\HUAWEI\AppData\Local\Temp\ccFG6VtR.s:488    .text.HAL_UART_MspDeInit:00000000 HAL_UART_MspDeInit
C:\Users\HUAWEI\AppData\Local\Temp\ccFG6VtR.s:568    .text.HAL_UART_MspDeInit:0000005c $d
C:\Users\HUAWEI\AppData\Local\Temp\ccFG6VtR.s:590    .bss.hdma_usart3_tx:00000000 hdma_usart3_tx
C:\Users\HUAWEI\AppData\Local\Temp\ccFG6VtR.s:583    .bss.hdma_usart3_rx:00000000 hdma_usart3_rx
C:\Users\HUAWEI\AppData\Local\Temp\ccFG6VtR.s:604    .bss.huart3:00000000 huart3
C:\Users\HUAWEI\AppData\Local\Temp\ccFG6VtR.s:597    .bss.huart1:00000000 huart1
C:\Users\HUAWEI\AppData\Local\Temp\ccFG6VtR.s:579    .bss.hdma_usart3_rx:00000000 $d
C:\Users\HUAWEI\AppData\Local\Temp\ccFG6VtR.s:586    .bss.hdma_usart3_tx:00000000 $d
C:\Users\HUAWEI\AppData\Local\Temp\ccFG6VtR.s:593    .bss.huart1:00000000 $d
C:\Users\HUAWEI\AppData\Local\Temp\ccFG6VtR.s:600    .bss.huart3:00000000 $d

UNDEFINED SYMBOLS
HAL_UART_Init
Error_Handler
HAL_GPIO_Init
HAL_NVIC_SetPriority
HAL_NVIC_EnableIRQ
HAL_DMA_Init
HAL_GPIO_DeInit
HAL_NVIC_DisableIRQ
HAL_DMA_DeInit
